(lp0
L244841855L
aL989043323L
aL12190824L
aL26674391L
aL11030563L
aL536848667L
aL1677009L
aL29605052L
aL174446845L
aL298747747L
aL2565089L
aL769003L
aL143673059L
aL223528302L
aL189454365L
aL254983720L
aL22015766L
aL17395406L
aL563658148L
aL219275623L
aL6158293L
aL3617748L
aL174575388L
aL40529842L
aL265374051L
aL231203850L
aL215328389L
aL6867118L
aL210750189L
aL5734497L
aL964011L
aL191518267L
aL349560110L
aL20212567L
aL513184422L
aL261295000L
aL483047289L
aL15444839L
aL12638262L
aL529683849L
aL265594564L
aL1136766540L
aL542031882L
aL202911049L
aL27713145L
aL1140204130L
aL44016309L
aL202673116L
aL275594297L
aL223029129L
aL33601875L
aL51928700L
aL201441015L
aL24769094L
aL26442861L
aL209694283L
aL144444683L
aL945329889L
aL55123098L
aL346556L
aL19523695L
aL990918813L
aL210289440L
aL3289501L
aL215442946L
aL9176843L
aL180606432L
aL50120309L
aL40739740L
aL944156144L
aL579247609L
aL1081545L
aL236267000L
aL623532297L
aL253616205L
aL232525682L
aL1130594320L
aL6151184L
aL14820378L
aL752995479L
aL220906023L
aL10706246L
aL7873431L
aL296217163L
aL676101940L
aL1115607L
aL7613651L
aL46912450L
aL208764514L
aL12595290L
aL261464243L
aL14913169L
aL353192836L
aL207545394L
aL33102376L
aL1117402381L
aL341161375L
aL307248085L
aL15677410L
aL26328956L
aL267454576L
aL302836389L
aL254699592L
aL376408003L
aL199873477L
aL226389065L
aL348394539L
aL11557473L
aL247362983L
aL1101989114L
aL397795617L
aL598929L
aL671053069L
aL398962412L
aL490398990L
aL36439657L
aL11608836L
aL497007851L
aL192998578L
aL17679854L
aL694402650L
aL159405L
aL198411849L
aL25850701L
aL215660428L
aL52843893L
aL400856062L
aL2167294L
aL368616747L
aL12410283L
aL1837814L
aL13931707L
aL9260479L
aL282696178L
aL6686729L
aL10527049L
aL583071225L
aL335269395L
aL1452846L
aL198398306L
aL35723280L
aL36923069L
aL276381501L
aL306307184L
aL22505154L
aL23881835L
aL232263016L
aL622330570L
aL611787331L
aL221655144L
aL297729309L
aL54477873L
aL830950036L
aL10296135L
aL7653461L
aL254713367L
aL267239355L
aL201427367L
aL257933428L
aL417710L
aL216953165L
aL21909759L
aL295659864L
aL333371387L
aL629130152L
aL272075794L
aL344261145L
aL240466259L
aL857096412L
aL528661047L
aL368414155L
aL549420629L
aL11240191L
aL196543767L
aL176472932L
aL257644463L
aL14508566L
aL412260356L
aL15896358L
aL13344057L
aL340492758L
aL499577017L
aL31872046L
aL49003055L
aL1008611615L
aL1288056L
aL459201073L
aL278801512L
aL734898713L
aL1248965L
aL396473697L
aL10379035L
aL2579262L
aL535357444L
aL280971883L
aL13860806L
aL179807299L
aL581101907L
aL1112044651L
aL671633949L
aL5676951L
aL464899902L
aL391393400L
aL801384L
aL593566068L
aL233639270L
aL642726214L
aL395257526L
aL9830282L
aL21546252L
aL491629502L
aL288522481L
aL180657404L
aL1666885L
aL12975449L
aL211209296L
aL24609671L
aL601858170L
aL490176899L
aL398880631L
aL281379194L
aL334438739L
aL145844239L
aL613937326L
aL1154900242L
aL48301909L
aL52574757L
aL26151579L
aL30985742L
aL212513445L
aL3281935L
aL231661050L
aL224617804L
aL55141537L
aL655002141L
aL547500157L
aL249426230L
aL200659578L
aL1129163L
aL4307594L
aL11090618L
aL499076256L
aL450831348L
aL204417117L
aL216803333L
aL664781L
aL1098244964L
aL44172611L
aL365664514L
aL202678556L
aL1084747680L
aL47050562L
aL636038855L
aL644918837L
aL192323682L
aL18996927L
aL18511116L
aL252896487L
aL873359639L
aL342989808L
aL1079294L
aL20031268L
aL104962171L
aL514219017L
aL330222896L
aL182775854L
aL187455244L
aL219676839L
aL21892368L
aL25283014L
aL382715122L
aL18201818L
aL187603374L
aL30730787L
aL17071782L
aL47924803L
aL238262702L
aL3556088L
aL732727045L
aL208209751L
aL26206389L
aL1153831828L
aL205390L
aL246705143L
aL416581732L
aL50244315L
aL20187904L
aL20675526L
aL9419987L
aL187462562L
aL54821208L
aL178524707L
aL183212462L
aL201812594L
aL215501724L
aL462171049L
aL310035839L
aL46563588L
aL552362678L
aL796028446L
a.