(lp0
L16288700L
aL23848160L
aL14785005L
aL32676754L
aL96814452L
aL58484102L
aL1557734875L
aL253588787L
aL281598678L
aL254650669L
aL38173727L
aL29237296L
aL1553363263L
aL27219342L
aL22361106L
aL490580955L
aL256443059L
aL592166566L
aL103017564L
aL21032320L
aL334632612L
aL861722732L
aL983328954L
aL33882655L
aL98002532L
aL293415235L
aL52514528L
aL218838887L
aL24709342L
aL376344150L
aL107721275L
aL106111691L
aL401288614L
aL23765491L
aL364467654L
aL16361404L
aL232795354L
aL25088517L
aL2147810040L
aL38394771L
aL212002246L
aL620196953L
aL874309717L
aL579807582L
aL366509162L
aL66627326L
aL489560226L
aL329013378L
aL189930541L
aL53605597L
aL1050754730L
aL1286702562L
aL93842198L
aL81602002L
aL39964596L
aL801184105L
aL27051363L
aL624717825L
aL40858205L
aL265842361L
aL224741073L
aL214946605L
aL24354277L
aL572865197L
aL19973043L
aL182327770L
aL226282171L
aL153508905L
aL329860849L
aL48099541L
aL228021209L
aL210013361L
aL366571390L
aL1636606465L
aL442773653L
aL299011789L
aL1196151877L
aL255149041L
aL179359962L
aL34145915L
aL1955926309L
aL81836365L
aL1912664996L
aL68431703L
aL92505997L
aL128193415L
aL143738725L
aL858684914L
aL437352926L
aL64047782L
aL28066705L
aL236510015L
aL78525946L
aL41670850L
aL399558946L
aL176195768L
aL227795419L
aL1368868969L
aL267179383L
aL228550007L
aL37624967L
aL18122403L
aL42475024L
aL100792229L
aL14733628L
aL300428748L
aL211253657L
aL153793616L
aL142194825L
aL22029974L
aL831799806L
aL41783123L
aL83203143L
aL237241638L
aL22073409L
aL312583632L
aL152755588L
aL238535008L
aL32928580L
aL185343779L
aL64256029L
aL239282595L
aL27944926L
aL199189235L
aL1141062194L
aL45317838L
aL98136223L
aL26452073L
aL215472612L
aL33203339L
aL211131359L
aL21097585L
aL382601292L
aL1280132749L
aL1108615832L
aL263730697L
aL373422444L
aL273735068L
aL8016702L
aL555324356L
aL447305871L
aL103049323L
aL486883282L
aL718178176L
aL28682044L
aL19988054L
aL119105684L
aL22121560L
aL151040208L
aL414707564L
aL197872815L
aL121903645L
aL12447272L
aL38712874L
aL235139831L
aL120133596L
aL253578577L
aL14628886L
aL8718462L
aL18825961L
aL2258698772L
aL82338546L
aL1897228994L
aL150623334L
aL15647738L
aL2216535253L
aL8872512L
aL15957019L
aL249841040L
aL9297152L
aL188859544L
aL225005673L
aL465699161L
aL2264149464L
aL44332613L
aL186424295L
aL115469982L
aL34008863L
aL1725133844L
aL2230015146L
aL188788132L
aL10326482L
aL386007608L
aL1630138386L
aL36496297L
aL323407425L
aL14650034L
aL81367297L
aL148021726L
aL23443013L
aL24626224L
aL41606475L
aL227448463L
aL109067293L
aL21081170L
aL352934145L
aL79564691L
aL213515018L
aL557370963L
aL827605736L
aL29992101L
aL16903235L
aL1522425259L
aL234001390L
aL127878439L
aL1006252387L
aL173510016L
aL237333652L
aL1736154745L
aL103109218L
aL426782678L
aL112269765L
aL62844592L
aL38818727L
aL51438460L
aL43091556L
aL254558641L
aL37707232L
aL136361071L
aL282109141L
aL83402532L
aL120913937L
aL2167116175L
aL148790902L
aL17389543L
aL49464873L
aL193616695L
aL413094281L
aL20135788L
aL110243876L
aL1052935422L
aL230531033L
aL387362730L
aL1390248510L
aL177627286L
aL823777147L
aL401427063L
aL87770546L
aL814190815L
aL25834541L
aL304011138L
aL21283810L
aL15612560L
aL988857474L
aL1043365310L
aL420905683L
aL223074145L
aL19233975L
aL49897701L
aL19441348L
aL941163830L
aL149035906L
aL873083395L
aL135441362L
aL200668044L
aL1538700764L
aL118077551L
aL146579938L
aL763281277L
aL19032034L
aL8177942L
aL16061333L
aL117738128L
aL132477972L
aL146523398L
aL133738207L
aL293963850L
aL819538448L
aL40059177L
aL203734769L
aL379927119L
aL266575654L
aL131868452L
aL441673174L
aL15686909L
aL21185242L
aL239464889L
aL160907084L
aL4023011L
aL14089332L
aL390813820L
aL452835633L
aL109066979L
aL20606603L
aL108677393L
aL114700907L
aL222888320L
aL9811692L
aL105921118L
aL140379254L
aL277730853L
aL108899371L
aL97544826L
aL356811542L
aL23635762L
aL356713925L
aL296326777L
aL408441920L
aL131932374L
aL377827979L
a.