(lp0
L38494569L
aL93703714L
aL322767194L
aL19140633L
aL372841968L
aL252062125L
aL151063632L
aL1209274314L
aL80884433L
aL210133563L
aL888364116L
aL487962906L
aL256477601L
aL66454449L
aL224671737L
aL791073030L
aL34366418L
aL26452073L
aL151804729L
aL25752295L
aL42588169L
aL26000504L
aL144181342L
aL284452933L
aL89721478L
aL28302329L
aL193285149L
aL224813449L
aL241293602L
aL19871650L
aL121903645L
aL34191741L
aL451567919L
aL391911921L
aL355504012L
aL321726945L
aL1356592382L
aL376717142L
aL327273139L
aL14670889L
aL21118142L
aL15733265L
aL1296598182L
aL254964056L
aL147568056L
aL378014453L
aL32738926L
aL176719678L
aL18637556L
aL1280919876L
aL866746104L
aL326086568L
aL101489648L
aL1303430185L
aL1286702562L
aL1455380917L
aL2363178352L
aL223275437L
aL231446852L
aL17742393L
aL46093809L
aL357517871L
aL983328954L
aL2149499034L
aL296357334L
aL83819580L
aL21182704L
aL952612520L
aL45322193L
aL1547997198L
aL305186825L
aL197393599L
aL8222532L
aL6376852L
aL446151426L
aL34008863L
aL147165736L
aL1146529260L
aL116164531L
aL119697336L
aL1336733478L
aL54533253L
aL131861722L
aL286556794L
aL386078632L
aL473608079L
aL14349500L
aL337111045L
aL38134754L
aL103299637L
aL208702571L
aL40193589L
aL86140491L
aL97979650L
aL2265050087L
aL20216684L
aL1102239079L
aL153969601L
aL218821816L
aL205122767L
aL251610901L
aL23062434L
aL270963788L
aL144845099L
aL17444349L
aL2240758544L
aL118912658L
aL129543527L
aL127462850L
aL310382667L
aL113582529L
aL343197788L
aL403132255L
aL2251483293L
aL259743842L
aL2297061L
aL39301530L
aL15648462L
aL108313608L
aL202178996L
aL47071867L
aL86529293L
aL34032064L
aL190395508L
aL69926366L
aL446552936L
aL45516310L
aL90950462L
aL31183766L
aL118064065L
aL60878287L
aL484617290L
aL106993157L
aL236788918L
aL591825393L
aL361203438L
aL12770692L
aL61468329L
aL226926249L
aL261300071L
aL1047851202L
aL25284453L
aL152956845L
aL1171138093L
aL263313051L
aL27724986L
aL281052496L
aL39587252L
aL60956310L
aL81658402L
aL2155682247L
aL256307086L
aL991813045L
aL72993475L
aL320337447L
aL226040370L
aL703995092L
aL222757207L
aL425134052L
aL68377196L
aL20761348L
aL17519493L
aL13690072L
aL319770920L
aL39404336L
aL345102691L
aL93842198L
aL512950423L
aL64360241L
aL25037361L
aL91864367L
aL19654965L
aL29160917L
aL34893328L
aL1140251088L
aL134163982L
aL207502674L
aL266466621L
aL448043510L
aL234877234L
aL1279095643L
aL151821330L
aL81675136L
aL18418118L
aL306967979L
aL250095683L
aL18122403L
aL39584706L
aL169670891L
aL20519922L
aL1252681L
aL93610405L
aL499066347L
aL1245890894L
aL23443013L
aL40138953L
aL109637107L
aL77297465L
aL256443059L
aL167646496L
aL456531813L
aL378187628L
aL381474456L
aL19153692L
aL1019857398L
aL238476710L
aL1628576990L
aL14205842L
aL167404247L
aL42878723L
aL989094499L
aL289845995L
aL107709150L
aL86075845L
aL276449438L
aL382000059L
aL156693465L
aL229982938L
aL100808255L
aL76954064L
aL300428748L
aL294839941L
aL471989358L
aL228523063L
aL455718065L
aL327250868L
aL601935528L
aL77530521L
aL2198305032L
aL128783376L
aL311003980L
aL44898326L
aL29058504L
aL17674716L
aL187195257L
aL50446480L
aL414846796L
aL81579274L
aL268678585L
aL17637441L
aL154826056L
aL24579102L
aL2166407480L
aL2284206490L
aL337504391L
aL96995478L
aL205704420L
aL171989248L
aL109551025L
aL960878366L
aL138908841L
aL128954486L
aL86570597L
aL25722952L
aL116898635L
aL34956952L
aL220765931L
aL15605776L
aL149654248L
aL311490323L
aL324876326L
aL236586896L
aL178825995L
aL261616632L
aL454314610L
aL214809954L
aL44378025L
aL386787219L
aL18951502L
aL14129861L
aL15479811L
aL144538903L
aL14062686L
aL16985324L
aL68097866L
aL27694141L
aL230402679L
aL48300559L
aL143412386L
aL1050754730L
aL42708968L
aL102101018L
aL107743976L
aL212116652L
aL9938952L
aL34886457L
aL826943156L
aL80888498L
aL1383301L
aL228831644L
aL32393400L
aL169340597L
aL158711602L
aL404712293L
aL886231453L
aL103430788L
aL180324941L
aL775604610L
aL11689142L
aL31840286L
aL1712811853L
aL148809962L
aL9797932L
aL22800579L
aL2158731759L
aL94306719L
aL239464889L
aL17389543L
aL26754045L
aL17883734L
aL143850454L
aL57453271L
aL446965665L
aL371147017L
aL48057622L
aL2305145996L
aL1729831645L
aL35854078L
aL406431679L
aL74704396L
aL699433L
aL239449427L
aL333994965L
aL246585652L
aL1257899365L
aL27051363L
aL878436752L
aL521690239L
aL16883701L
aL249339906L
aL92148803L
aL29451633L
aL608402367L
aL14908404L
aL37479639L
aL230835142L
aL14310583L
aL248804159L
aL198395968L
aL35019106L
aL14505451L
aL114471082L
aL185782548L
aL309200883L
aL575429282L
aL16104653L
aL20051833L
aL66679455L
aL239902765L
aL15934649L
aL12397732L
aL602187372L
aL15294784L
aL23749158L
aL115981785L
aL2189720646L
aL361180834L
aL138515766L
aL127184962L
aL16197166L
aL205168234L
aL1424643588L
aL21625760L
aL306128251L
aL37277262L
aL159057359L
aL1239911953L
aL16804793L
aL8694762L
aL158810622L
aL268486160L
aL18122665L
aL137734224L
aL365548049L
aL198782546L
aL133839469L
aL409388474L
aL19311991L
aL225975183L
aL23762842L
aL309682411L
aL39748554L
aL2279555693L
aL217533354L
aL182781113L
aL818436187L
aL132507802L
aL953843886L
aL316992127L
aL113708450L
aL92141030L
aL250718881L
aL19542075L
aL101817461L
aL203202465L
aL475775639L
aL76124770L
aL811829L
aL143738725L
aL16518075L
aL73095873L
aL94318464L
aL14324859L
aL214599922L
aL274139707L
aL12609492L
aL2232293404L
aL354501662L
aL15317739L
aL3690891L
aL471566173L
aL20778582L
aL248904364L
aL39754021L
aL2338704380L
aL194224213L
aL20767105L
aL19625601L
aL21262491L
aL1219698702L
aL25661346L
aL196135386L
aL34999037L
aL123890019L
aL265563523L
aL390765315L
aL1561119866L
aL147241015L
aL1647958488L
aL258731441L
aL15398258L
aL105163722L
aL19528129L
aL256613678L
aL245511921L
aL318694533L
aL21682000L
aL146188657L
aL503246450L
aL132600005L
aL52470288L
aL241529465L
aL776698800L
aL27837131L
aL81609519L
aL109845390L
aL16061333L
aL362536720L
aL18488221L
aL23233309L
aL24457265L
aL18761963L
aL87167247L
aL93940549L
aL103394125L
aL36145883L
aL20978315L
aL425813150L
aL17336102L
aL263150746L
aL348338507L
aL196320780L
aL221876663L
aL102619627L
aL32510228L
aL316798473L
aL368876749L
aL403725695L
aL1317531967L
aL1872911118L
aL94035497L
aL321150423L
aL337255243L
aL407318209L
aL113031449L
aL225008151L
aL153508905L
aL517628223L
aL20988960L
aL317677126L
aL50697669L
aL214409722L
aL339776004L
aL915122599L
aL30634001L
aL254456439L
aL115216302L
aL23352601L
aL1527640345L
aL87003637L
aL2232041L
aL553079007L
aL1468743715L
aL9581962L
aL141668954L
aL65987963L
aL195061903L
aL169954172L
aL242686426L
aL33491157L
aL881360305L
aL190123267L
aL119700726L
aL1544184624L
aL100270578L
aL368908947L
aL114420628L
aL34216824L
aL1408663039L
aL151982102L
aL242333333L
aL328660665L
aL918665630L
aL710888985L
aL87409113L
aL29708929L
aL1183017871L
aL223244275L
aL479191390L
aL118405132L
aL109274579L
aL41468039L
aL162373502L
aL239426154L
aL105235870L
aL44160549L
aL14339326L
aL101866939L
aL154716666L
aL287552823L
aL932380813L
aL1357898839L
aL326382104L
aL17702451L
aL302270558L
aL28072885L
aL21681267L
aL42491290L
aL84589963L
aL2354907234L
aL118381939L
aL920418656L
aL632420479L
aL69103159L
aL5539012L
aL16225083L
aL13665182L
aL16301360L
aL65197584L
aL102936661L
aL631422577L
aL24441240L
aL59788815L
aL88460314L
aL97334853L
aL33310576L
aL94564233L
aL1066653937L
aL80013444L
aL357974796L
aL285232127L
aL117738128L
aL217852736L
aL2318943734L
aL549558072L
aL96531895L
aL401356949L
aL2325742289L
aL190509888L
aL154974289L
aL16696384L
aL236510015L
aL2193919819L
aL119919687L
aL29468264L
aL293998485L
aL90713930L
aL1621370065L
aL103594035L
aL16602093L
aL144227450L
aL104672256L
aL257637527L
aL22025285L
aL413557440L
aL374401758L
aL275962541L
aL344898896L
aL138876593L
aL317904470L
aL16132611L
aL928213218L
aL16363867L
aL12531492L
aL55499394L
aL255200117L
aL129264419L
aL14234077L
aL1279741L
aL235163151L
aL249790252L
aL37576302L
aL394441663L
aL1912664996L
aL226713845L
aL173752759L
aL790205L
aL91285767L
aL308416403L
aL116466952L
aL284998848L
aL1700434550L
aL121179688L
aL516837866L
aL33510077L
aL35714636L
aL138534206L
aL38373311L
aL154009999L
aL15276763L
aL144552109L
aL384252075L
aL10894472L
aL116975975L
aL7147472L
aL278222450L
aL1309266751L
aL104468977L
aL20367326L
aL22254103L
aL22361106L
aL87709840L
aL147564705L
aL286956037L
aL256913316L
aL95173260L
aL148852001L
aL617980267L
aL1381977690L
aL23663034L
aL74301240L
aL146414652L
aL19062206L
aL242021992L
aL283225900L
aL66093580L
aL72309180L
aL100183381L
aL214257479L
aL297431132L
aL367074969L
aL373422444L
aL324026874L
aL17645718L
aL49464873L
aL2165933725L
aL156676136L
aL302380553L
aL395755409L
aL49081139L
aL194672237L
aL14525652L
aL18990207L
aL1538700764L
aL632028702L
aL8492832L
aL1066420424L
aL138809546L
aL55810374L
aL357057834L
aL95525492L
aL316357194L
aL36385355L
aL300409342L
aL1604636844L
aL27860037L
aL155797139L
aL30094017L
aL332218692L
aL52092180L
aL139668811L
aL40488573L
aL30297997L
aL75113916L
aL60565987L
aL69287616L
aL48681445L
aL35187353L
aL128193415L
aL270496090L
aL195679007L
aL24404061L
aL1384321L
aL27757609L
aL32395670L
aL40026358L
aL17764328L
aL15200788L
aL98922125L
aL115399156L
aL242279056L
aL29237296L
aL96819065L
aL203089858L
aL19791758L
aL275006089L
aL337109785L
aL21005792L
aL21608407L
aL6100272L
aL221168198L
aL22938607L
aL130786948L
aL312533802L
aL141481676L
aL355668808L
aL320875584L
aL194123601L
aL985501916L
aL183787735L
aL297037898L
aL133022743L
aL215767160L
aL30892689L
aL194941029L
aL825955807L
aL1413856400L
aL2216535253L
aL133736409L
aL1283577036L
aL97653135L
aL193837866L
aL255023489L
aL203841451L
aL9647022L
aL180930676L
aL99806913L
aL2175593017L
aL7329762L
aL18190814L
aL328475606L
aL396284147L
aL463938802L
aL159476873L
aL285483165L
aL173099410L
aL51438460L
aL93601604L
aL31563356L
aL3408321L
aL608974551L
aL398558663L
aL1052935422L
aL403446157L
aL32353536L
aL338671702L
aL15522321L
aL155158599L
aL213002680L
aL15174272L
aL16228571L
aL34605001L
aL390516191L
aL34476414L
aL129574737L
aL103902004L
aL181532622L
aL25263422L
aL1372855758L
aL34909626L
aL400374950L
aL16139549L
aL339144430L
aL29564083L
aL156876306L
aL17315587L
aL20624885L
aL102767249L
aL141877826L
aL235071117L
aL118018916L
aL219201336L
aL15181936L
aL105921129L
aL127607000L
aL18832147L
aL1884555660L
aL309148597L
aL287315445L
aL226988710L
aL358904325L
aL33674697L
aL150253982L
aL36163152L
aL206195705L
aL394317839L
aL209254756L
aL209301671L
aL114702713L
aL185815038L
aL41251742L
aL409135300L
aL301033904L
aL24863006L
aL37279443L
aL138480403L
aL175211565L
aL1118818177L
aL322982715L
aL261196764L
aL25262993L
aL25257223L
aL14061950L
aL348376733L
aL396488512L
aL231806507L
aL18044970L
aL295629089L
aL19141538L
aL374281716L
aL155273L
aL200066875L
aL16664200L
aL131335436L
aL1485313056L
aL170671765L
aL33532462L
aL266633369L
aL18540388L
aL16564985L
aL220920538L
aL24195615L
aL14480889L
aL255916895L
aL138903792L
aL150532161L
aL267382258L
aL126249594L
aL186071095L
aL379572843L
aL28125820L
aL163711760L
aL256681351L
aL133443635L
aL167815024L
aL34956482L
aL107832845L
aL18967261L
aL13014832L
aL38646532L
aL371722650L
aL132897607L
aL30885580L
aL35851840L
aL356264983L
aL252826633L
aL210762221L
aL188436304L
aL324229730L
aL257377362L
aL93752983L
aL216813630L
aL36891193L
aL56660764L
aL89970039L
aL11592462L
aL6312672L
aL162157097L
aL42719907L
aL175716136L
aL8461532L
aL227757018L
aL259674902L
aL53326742L
aL76967609L
aL295607824L
aL155599767L
aL44834458L
aL232930308L
aL96115174L
aL13940252L
aL57096221L
aL107099101L
aL3351551L
aL26468502L
aL8220152L
aL14147295L
aL20509221L
aL215569085L
aL563228356L
aL8718462L
aL5901382L
aL107075744L
aL137810995L
aL24363052L
aL30892408L
aL115773230L
aL73153041L
aL475615180L
aL190366405L
aL301122243L
aL156953759L
aL27974702L
aL21075824L
aL180576847L
aL85785495L
aL800590L
aL97992616L
aL21907899L
aL30377714L
aL228264182L
aL19420650L
aL32421048L
aL81826056L
aL67065421L
aL53493411L
aL8729562L
aL16728263L
aL19774983L
aL218188252L
aL51011766L
aL8931182L
aL133645875L
aL109193509L
aL35443315L
aL25577539L
aL84840051L
aL75020959L
aL12047202L
aL112267700L
aL20545000L
aL82952643L
aL98001405L
aL387046761L
aL90257941L
aL115522360L
aL88042921L
aL17038633L
aL127624006L
aL61531465L
aL75678586L
aL2154678486L
aL9939642L
aL80908558L
aL53420509L
aL94649546L
aL326088438L
aL598812690L
aL20260182L
aL85271847L
aL1713813944L
aL26273419L
aL21499107L
aL646033L
aL196098358L
aL251116897L
aL383955224L
aL343992005L
aL15453140L
aL19082220L
aL55834542L
aL178685936L
aL60974766L
aL14977923L
aL28077369L
aL109021293L
aL79606637L
aL15767622L
aL592242579L
aL1615577270L
aL425047035L
aL986955260L
aL38688933L
aL9242752L
aL25970603L
aL15239136L
aL43895857L
aL396202338L
aL44850413L
aL185373561L
aL359616828L
aL66667820L
aL67495488L
aL45980858L
aL34956737L
aL21064162L
aL22216704L
aL259121330L
aL18431794L
aL229307589L
aL29186379L
aL110751871L
aL1031591L
aL18978590L
aL141250097L
aL1147891567L
aL101083718L
aL44697971L
aL58759018L
aL34957252L
aL2273851L
aL41395161L
aL156494724L
aL499363795L
aL99250564L
aL975054343L
aL272790791L
aL88938986L
aL156745561L
aL357409215L
aL112451876L
aL1893929318L
aL168935405L
aL10992342L
aL751482931L
aL623771631L
aL904437368L
aL77021669L
aL23425283L
aL66094911L
aL151920625L
aL137847561L
aL304011138L
aL353734897L
aL362456931L
aL81655393L
aL200060147L
aL14719082L
aL350515157L
aL51801113L
aL88392782L
aL154881399L
aL763281277L
aL63351063L
aL21313762L
aL257857625L
aL18027839L
aL16984407L
aL173084219L
aL154276646L
aL176843352L
aL1581881756L
aL16892175L
aL5406672L
aL294527123L
aL24162057L
aL131445917L
aL109066979L
aL321891251L
aL242470518L
aL47308906L
aL207961425L
aL40059177L
aL73827382L
aL221042538L
aL16170521L
aL71894259L
aL110244238L
aL24078984L
aL14706328L
aL36148582L
aL20976602L
aL5734642L
aL230602874L
aL509020440L
aL1610571L
aL48317727L
aL31423933L
aL14274717L
aL2185870161L
aL15133590L
aL104425930L
aL28982115L
aL1087343234L
aL6117952L
aL237854345L
aL14185506L
aL501736104L
aL14393723L
aL28149010L
aL40667811L
aL59788503L
aL14389357L
aL19494773L
aL17391022L
aL283583758L
aL1037813413L
aL10035582L
aL270485333L
aL43168046L
aL201849230L
aL81143990L
aL1111400834L
aL312062838L
aL579807582L
aL79703373L
aL277727172L
aL187277839L
aL45927703L
aL180694610L
aL103845075L
aL141644024L
aL12626522L
aL15223602L
aL114734058L
aL189892415L
aL15272848L
aL26337248L
aL925459429L
aL314745687L
aL17368620L
aL236955010L
aL18046995L
aL17363642L
aL29656719L
aL40925181L
aL21892767L
aL27362157L
aL8080342L
aL348520469L
aL14327356L
aL28345077L
aL99518813L
aL55814017L
aL68119174L
aL764637853L
aL11389142L
aL295342887L
aL270265099L
aL48935973L
aL17210968L
aL993525139L
aL39791311L
aL28709051L
aL245358947L
aL23337623L
aL110201665L
aL650123L
aL46395523L
aL19614973L
aL28379041L
aL1181485632L
aL234945263L
aL42159393L
aL67402906L
aL168300009L
aL288684518L
aL287260151L
aL14425872L
aL377551723L
aL16046588L
aL77536500L
aL177123755L
aL168470251L
aL30877063L
aL10303782L
aL16646739L
aL43877175L
aL361132200L
aL17796231L
aL253864446L
aL33131221L
aL109067293L
aL249819157L
aL65588139L
aL16466130L
aL320737259L
aL16842166L
aL17139443L
aL520813912L
aL19499648L
aL58562147L
aL12021142L
aL7843782L
aL24168684L
aL454130483L
aL92782439L
aL39588822L
aL34732209L
aL237028672L
aL16887246L
aL397114442L
aL23340979L
aL49616368L
aL2150077079L
aL275192405L
aL48419495L
aL14898555L
aL29992101L
aL60591616L
aL15971612L
aL131932374L
aL33858975L
aL570759242L
aL19535896L
aL1678250311L
aL193726866L
aL60409784L
aL140150340L
aL57763384L
aL239076253L
aL360649997L
aL98568726L
aL326195741L
aL21816096L
aL202339796L
aL111878758L
aL267670544L
aL82542445L
aL278708054L
aL631264338L
aL573104563L
aL23298515L
aL69328321L
aL132477972L
aL74243657L
aL8148482L
aL375402732L
aL98340010L
aL22896946L
aL107002663L
aL119382572L
aL997802719L
aL16658821L
aL761075562L
aL209069342L
aL2336760254L
aL1670296784L
aL42684163L
aL11432352L
aL381109005L
aL239282595L
aL237906801L
aL814641L
aL15234546L
aL547653685L
aL106704165L
aL174567081L
aL200228508L
aL159237506L
aL189809215L
aL19768491L
aL150253008L
aL18760606L
aL1737024354L
aL50666013L
aL98002532L
aL24747939L
aL23757201L
aL1228250208L
aL1959788720L
aL2164997851L
aL756938136L
aL110139282L
aL1111773860L
aL66882720L
aL392979973L
aL6614602L
aL23604631L
aL211991643L
aL73374873L
aL466912718L
aL370565204L
aL40909526L
aL284449731L
aL74470033L
aL175329799L
aL217557306L
aL307323544L
aL14461576L
aL18164319L
aL365573244L
aL24234643L
aL9595022L
aL408938718L
aL19898861L
aL575287059L
aL117721773L
aL19286689L
aL970187088L
aL195086872L
aL73630021L
aL2149955326L
aL27881186L
aL225484097L
aL196671019L
aL217380443L
aL253090242L
aL27653009L
aL235288851L
aL325548735L
aL217041149L
aL95016894L
aL96814452L
aL177368737L
aL29959062L
aL49797282L
aL1486021L
aL18120084L
aL238153111L
aL222142857L
aL116535284L
aL1546790822L
aL18988191L
aL56505792L
aL123804856L
aL190019198L
aL138439050L
aL338904516L
aL27046815L
aL25802225L
aL103366304L
aL318978835L
aL376700834L
aL24495285L
aL18203762L
aL65019148L
aL267237955L
aL1676689423L
aL2274928939L
aL224415178L
aL207894256L
aL49648973L
aL276053464L
aL192736653L
aL886307832L
aL26190909L
aL288763648L
aL216523151L
aL42319966L
aL329013378L
aL166950817L
aL231426564L
aL16389805L
aL839170244L
aL24741007L
aL452161106L
aL260098356L
aL183538796L
aL1283904948L
aL1295094266L
aL27902547L
aL376512987L
aL236032081L
aL189925980L
aL41559539L
aL229986632L
aL16365853L
aL19817183L
aL149276260L
aL112736025L
aL585122250L
aL316753490L
aL19704622L
aL21755994L
aL199314289L
aL271545693L
aL791337229L
aL141160178L
aL36336051L
aL20367168L
aL28781887L
aL34145915L
aL46221637L
aL3503151L
aL6520742L
aL75615029L
aL299011789L
aL19529312L
aL21783525L
aL313829335L
aL1897309622L
aL104265085L
aL780290L
aL15140589L
aL101055523L
aL158861846L
aL88718963L
aL1582723063L
aL196261895L
aL116385296L
aL885440605L
aL127327240L
aL963143186L
aL168445515L
aL64798049L
aL19968543L
aL481553544L
aL1163211L
aL210893021L
aL17018930L
aL186163695L
aL243761283L
aL35206251L
aL20800000L
aL587745700L
aL52322237L
aL220303989L
aL182883636L
aL26739730L
aL176610009L
aL478065516L
aL38875619L
aL78434657L
aL992860500L
aL831799806L
aL152758196L
aL20609253L
aL502216258L
aL28097746L
aL1047649202L
aL1021765525L
aL228828681L
aL1177333315L
aL26802331L
aL48076171L
aL533334490L
aL104717182L
aL16286379L
aL259342675L
aL1213620434L
aL108899776L
aL296898623L
aL2271899669L
aL156616836L
aL49312467L
aL38875696L
aL923744202L
aL35175981L
aL390687946L
aL243392280L
aL20815320L
aL293658619L
aL321259175L
aL211490630L
aL64359373L
aL249841040L
aL17717303L
aL285390946L
aL98733143L
aL222579719L
aL304919644L
aL138287238L
aL309188993L
aL269733035L
aL304659291L
aL119262447L
aL480812896L
aL97860660L
aL361251509L
aL18762653L
aL296865685L
aL398222401L
aL255650374L
aL28727416L
aL2168720552L
aL333776944L
aL85436837L
aL252512717L
aL774764016L
aL401464137L
aL24557338L
aL18907388L
aL292333315L
aL394681738L
aL113131423L
aL33615737L
aL220706289L
aL18019932L
aL125349080L
aL217540370L
aL121235074L
aL2165034184L
aL560565117L
aL213847753L
aL138150041L
aL1425707352L
aL157968356L
aL21565783L
aL166961004L
aL19259583L
aL272315368L
aL224203267L
aL203734769L
aL552225036L
aL161985218L
aL993460352L
aL106447797L
aL246934027L
aL1443130045L
aL236360262L
aL14453252L
aL42456306L
aL340911521L
aL24442972L
aL88464172L
aL1389800804L
aL14370206L
aL486883282L
aL220122711L
aL137256430L
aL39229603L
aL2199769593L
aL18449673L
aL132194771L
aL263730697L
aL125996625L
aL704669857L
aL205389959L
aL73416625L
aL313205745L
aL1498676030L
aL41910929L
aL36672594L
aL31499069L
aL64380210L
aL211323437L
aL1077428948L
aL20589160L
aL18690100L
aL130685526L
aL39247946L
aL108899371L
aL82940700L
aL416339165L
aL68676229L
aL41958664L
aL227413737L
aL291662382L
aL343717061L
aL785213444L
aL18475187L
aL545097338L
aL34594124L
aL106451686L
aL309119047L
aL610082930L
aL10326482L
aL234001390L
aL293963850L
aL11659052L
aL226654106L
aL91801754L
aL43716651L
aL608335858L
aL29774898L
aL111706579L
aL366509162L
aL44942351L
aL2332699377L
aL15921643L
aL19450412L
aL64856240L
aL9453502L
aL100473679L
aL127202317L
aL85241919L
aL2547771L
aL32431301L
aL214946605L
aL37251715L
aL28966950L
aL149650250L
aL156738263L
aL323208800L
aL931696417L
aL211605536L
aL1432470625L
aL25662129L
aL204762148L
aL51570003L
aL16116593L
aL188473504L
aL14431633L
aL607471146L
aL20075218L
aL6618672L
aL18366000L
aL84416603L
aL278707971L
aL26122993L
aL247395614L
aL15712898L
aL161648253L
aL25074007L
aL364978644L
aL107026643L
aL229940784L
aL214613520L
aL183652030L
aL3157221L
aL34256393L
aL22644596L
aL162088306L
aL22997287L
aL802405554L
aL168440663L
aL224611259L
aL232838866L
aL622103296L
aL155891016L
aL120133596L
aL14765037L
aL178459968L
aL134005991L
aL1553363263L
aL371235500L
aL497254781L
aL314086299L
aL247257340L
aL117767142L
aL181578201L
aL1606021531L
aL1390534928L
aL10097742L
aL247900885L
aL415237247L
aL107748368L
aL150391356L
aL171209478L
aL437352926L
aL140380661L
aL26889458L
aL28864654L
aL19832984L
aL162441059L
aL743084030L
aL195732023L
aL163868023L
aL301360659L
aL263194573L
aL1274251L
aL14746279L
aL2282066428L
aL114085025L
aL177619626L
aL236016593L
aL22241095L
aL15383031L
aL68477148L
aL310810156L
aL35711729L
aL254053632L
aL120142917L
aL140115784L
aL178431877L
aL21286200L
aL199390239L
aL150623334L
aL220871170L
aL365005569L
aL21191746L
aL164981650L
aL127164173L
aL2265212547L
aL27295512L
aL233124907L
aL310147275L
aL94149865L
aL342125291L
aL273091289L
aL305015870L
aL7643692L
aL163190580L
aL766218643L
aL47371508L
aL369624459L
aL120554100L
aL95400334L
aL7505932L
aL131154383L
aL256950984L
aL306305004L
aL161423201L
aL101738530L
aL1135259779L
aL91442223L
aL196904017L
aL278153278L
aL873141L
aL148790902L
aL188719686L
aL266208982L
aL125926427L
aL163149866L
aL106111691L
aL370154051L
aL28066705L
aL249652411L
aL134822630L
aL216891918L
aL22026934L
aL147159518L
aL38426208L
aL1404538590L
aL296116477L
aL92505997L
aL320224513L
aL1388017314L
aL19545819L
aL143078246L
aL34777679L
aL300311318L
aL22754056L
aL389615615L
aL410993947L
aL58484102L
aL35038126L
aL175304303L
aL106464971L
aL813358681L
aL310172073L
aL197728271L
aL1615240087L
aL394883887L
aL177627286L
aL86794973L
aL1471588778L
aL243742530L
aL210569416L
aL637138644L
aL21330621L
aL124576255L
aL203687622L
aL115517513L
aL236894702L
aL2300110626L
aL121877402L
aL15480252L
aL275935878L
aL45145051L
aL230566901L
aL55785587L
aL15897791L
aL178649760L
aL115469982L
aL1349088588L
aL222041748L
aL27358157L
aL24327770L
aL32872126L
aL137360686L
aL1077049099L
aL242905973L
aL274389008L
aL101998326L
aL27045040L
aL15180318L
aL114812896L
aL329692782L
aL188244960L
aL238522971L
aL125736088L
aL23848160L
aL18984120L
aL27980803L
aL9811692L
aL241141689L
aL1061236459L
aL40892531L
aL128683866L
aL159083158L
aL948232532L
aL57880431L
aL285016642L
aL22382564L
aL354444682L
aL325118209L
aL91956069L
aL271001630L
aL15678925L
aL319168917L
aL26833070L
aL29995331L
aL183713180L
aL34899422L
aL20642401L
aL367296920L
aL2217913934L
aL267313740L
aL19059423L
aL28904483L
aL67932926L
aL394592869L
aL262243192L
aL2219870322L
aL30525194L
aL121493492L
aL329194569L
aL185369372L
aL224142025L
aL8872512L
aL160907084L
aL205190910L
aL183206558L
aL103000792L
aL1242303788L
aL210227705L
aL42867479L
aL93668963L
aL25567694L
aL50276383L
aL267963256L
aL490580955L
aL211751068L
aL43091556L
aL136430311L
aL401933345L
aL38870371L
aL22454360L
aL240836151L
aL46260397L
aL186360896L
aL79741254L
aL827605736L
aL122978465L
aL14131979L
aL291092159L
aL847014528L
aL42392698L
aL908770262L
aL819538448L
aL123797913L
aL1541902951L
aL153450325L
aL153690193L
aL81302119L
aL40949117L
aL54333288L
aL10714802L
aL112006470L
aL836103008L
aL312731272L
aL395837601L
aL2266036657L
aL392258034L
aL230441703L
aL343645282L
aL813407449L
aL237333652L
aL961982185L
aL233215779L
aL265842361L
aL69096931L
aL159156734L
aL15965114L
aL380657144L
aL288844860L
aL68656127L
aL27206258L
aL78062549L
aL21073164L
aL100289612L
aL8829672L
aL45389302L
aL1901075232L
aL15837928L
aL22486055L
aL2433331L
aL52376942L
aL25505547L
aL9666842L
aL208536323L
aL57268555L
aL34618485L
aL988902224L
aL45351670L
aL216203198L
aL860447022L
aL254536520L
aL149987833L
aL165372781L
aL877739094L
aL1511528150L
aL21226545L
aL117428533L
aL194100313L
aL20810518L
aL386797775L
aL221871662L
aL391450515L
aL21242424L
aL387270463L
aL1613084742L
aL977217673L
aL124097592L
aL27219342L
aL390606611L
aL8937472L
aL212995476L
aL1077757422L
aL40483417L
aL234731469L
aL148021726L
aL168306266L
aL135882310L
aL36565600L
aL188788132L
aL61151317L
aL1938152384L
aL9723932L
aL2177782853L
aL2156845608L
aL13398462L
aL370587726L
aL326325920L
aL45317838L
aL217787148L
aL242783033L
aL249159009L
aL307713512L
aL38559269L
aL223083609L
aL8293072L
aL9912022L
aL317375796L
aL130555360L
aL216674870L
aL30283179L
aL199075862L
aL1659588084L
aL52109438L
aL1863863022L
aL18283199L
aL90218842L
aL158785362L
aL209977998L
aL247201479L
aL76932060L
aL92216919L
aL197614617L
aL27474680L
aL1604391L
aL227448463L
aL33892088L
aL107817468L
aL44641768L
aL369628375L
aL1852315465L
aL215016861L
aL121244858L
aL13341472L
aL264486809L
aL244659732L
aL1390248510L
aL394642111L
aL225853589L
aL2374112290L
aL14766038L
aL586508735L
aL242502319L
aL389011151L
aL20039476L
aL230732459L
aL313309016L
aL123902854L
aL518869122L
aL2223377481L
aL8245312L
aL109899740L
aL141896998L
aL718178176L
aL365626403L
aL2167116175L
aL26723550L
aL941163830L
aL25088517L
aL386667146L
aL142708198L
aL329857320L
aL62622516L
aL144864951L
aL790196474L
aL224126241L
aL1870524908L
aL572386376L
aL73067296L
aL179228921L
aL5425412L
aL377205112L
aL5490302L
aL133600499L
aL90601250L
aL71204398L
aL1067883019L
aL1175402750L
aL211131359L
aL582918419L
aL544929943L
aL173399167L
aL206390576L
aL17591106L
aL322762387L
aL435105180L
aL176503669L
aL143793632L
aL190292856L
aL109830047L
aL15054837L
aL195737471L
aL551003448L
aL851822209L
aL22632751L
aL139753018L
aL299975120L
aL353645544L
aL2323224922L
aL779953753L
aL26290626L
aL81571594L
aL178910445L
aL26311854L
aL277192054L
aL1468079136L
aL270538727L
aL140183053L
aL71871659L
aL222284135L
aL53173450L
aL115342718L
aL56047169L
aL33888287L
aL621976856L
aL157412305L
aL25380709L
aL88685436L
aL21910665L
aL157000861L
aL328913844L
aL76676542L
aL293415235L
aL12149272L
aL211887893L
aL42463060L
aL84396150L
aL2356739566L
aL23522742L
aL332151220L
aL66817330L
aL97544826L
aL242846996L
aL158792370L
aL20768938L
aL32655008L
aL44837780L
aL22633005L
aL198562112L
aL2333486561L
aL42300332L
aL24748198L
aL400967966L
aL53685051L
aL185572069L
aL213244511L
aL198252601L
aL1213325426L
aL36635743L
aL226884475L
aL269713834L
aL290022483L
aL68161766L
aL1586244895L
aL222459621L
aL113838927L
aL110233102L
aL145619475L
aL338306198L
aL26521230L
aL14541893L
aL1139717690L
aL146942440L
aL119571774L
aL29283402L
aL124586940L
aL382101152L
aL282945543L
aL101720086L
aL190753897L
aL581178909L
aL88456233L
aL218466474L
aL789043692L
aL2334201172L
aL1483170001L
aL801184105L
aL211507820L
aL1427922337L
aL1351853276L
aL41183375L
aL478064514L
aL964033628L
aL2333916496L
aL157963836L
aL835397551L
aL59602405L
aL27038909L
aL2831541L
aL253578577L
aL532324790L
aL24260562L
aL53494272L
aL286659585L
aL539924505L
aL377827979L
aL285624525L
aL251225941L
aL39816100L
aL174310325L
aL35694416L
aL116176144L
aL358329329L
aL280509670L
aL122977543L
aL1173431364L
aL191035254L
aL65822218L
aL49928029L
aL193667191L
aL24200952L
aL154045228L
aL123179319L
aL167726177L
aL48634145L
aL139463883L
aL216977957L
aL26591775L
aL267272707L
aL387646251L
aL20263875L
aL40829732L
aL49654033L
aL320689033L
aL242064380L
aL989581L
aL131475440L
aL2329875975L
aL1082941598L
aL184832587L
aL227663902L
aL14292907L
aL258830392L
aL266800331L
aL23635762L
aL1861533084L
aL273098660L
aL360746835L
aL22146254L
aL395914588L
aL21030407L
aL18382456L
aL75069945L
aL252977373L
aL254650669L
aL228550007L
aL153438232L
aL18654194L
aL18668335L
aL17674234L
aL182327770L
aL137787161L
aL76007866L
aL981362438L
aL1621280106L
aL202529017L
aL2260613804L
aL154130966L
aL235055418L
aL1329452834L
aL14811317L
aL248556572L
aL260256594L
aL237238679L
aL789914575L
aL762933102L
aL1878122485L
aL31678884L
aL298288751L
aL538383728L
aL300698270L
aL19017502L
aL281755837L
aL150826450L
aL58047862L
aL183164302L
aL183743688L
aL1063815715L
aL152748341L
aL382768924L
aL24153127L
aL277593080L
aL81631491L
aL37957313L
aL94282012L
aL44326631L
aL71570848L
aL628998777L
aL102603104L
aL103984808L
aL5423762L
aL101470025L
aL132882253L
aL407916715L
aL90126751L
aL107800462L
aL95962283L
aL70086266L
aL601836723L
aL113610892L
aL319276627L
aL220127473L
aL1205242111L
aL38993394L
aL149048761L
aL164854390L
aL82446638L
aL2375716312L
aL29205898L
aL74243379L
aL96838031L
aL103885492L
aL54849344L
aL151940284L
aL191842440L
aL136978136L
aL867716706L
aL125657196L
aL121373151L
aL368257346L
aL99981938L
aL424376797L
aL861722732L
aL119105684L
aL36661335L
aL9141862L
aL305294441L
aL11230702L
aL16718835L
aL199025028L
aL219071434L
aL259492209L
aL325628474L
aL170994095L
aL332332128L
aL135668330L
aL127602776L
aL258388120L
aL180543846L
aL103109218L
aL1329868698L
aL93959850L
aL217120323L
aL195355639L
aL79788673L
aL212002246L
aL79745664L
aL101757537L
aL25496360L
aL282109141L
aL368433682L
aL594172892L
aL1717844174L
aL104430612L
aL195322087L
aL262751172L
aL57190437L
aL57108515L
aL122802515L
aL15416702L
aL126985757L
aL292835605L
aL86584891L
aL1409781090L
aL29444193L
aL239144385L
aL962890550L
aL194326848L
aL160195546L
aL211501646L
aL121533497L
aL224741073L
aL88437755L
aL434246321L
aL707514720L
aL14757518L
aL255570264L
aL23708900L
aL318507593L
aL402340994L
aL80344767L
aL137358174L
aL1283191L
aL235736476L
aL1655335358L
aL225137805L
aL167234999L
aL93971540L
aL79521884L
aL46881458L
aL157455638L
aL312154424L
aL14244584L
aL47943660L
aL22968369L
aL1346721942L
aL1415883061L
aL514096691L
aL141943868L
aL220654261L
aL252465421L
aL207395985L
aL406760917L
aL133701465L
aL379036661L
aL423640907L
aL2161608788L
aL121433951L
aL19298582L
aL149975955L
aL11661142L
aL1872782107L
aL2343828436L
aL25659751L
aL95076705L
aL2284530083L
aL31473316L
aL224288564L
aL368838028L
aL18732660L
aL242694813L
aL50561999L
aL882921973L
aL372304009L
aL155045309L
aL192971614L
aL120080657L
aL42740493L
aL334104607L
aL1545994003L
aL23183438L
aL1673560639L
aL190711071L
aL367356724L
aL1276176432L
aL55663806L
aL286300913L
aL408321086L
aL253718758L
aL89997782L
aL110643479L
aL14303753L
aL121085152L
aL2222452366L
aL800477L
aL27846477L
aL210856903L
aL224827413L
aL484198600L
aL198884791L
aL256706525L
aL79572606L
aL21283126L
aL163877216L
aL560000220L
aL289273744L
aL234788676L
aL212001777L
aL52514528L
aL2341271499L
aL19020111L
aL21004258L
aL734682816L
aL451518950L
aL11310582L
aL1917542059L
aL84416722L
aL2298311275L
aL306902836L
aL21803356L
aL225388379L
aL213974926L
aL19015504L
aL263602108L
aL347436336L
aL399509561L
aL437331398L
aL536055428L
aL19024242L
aL13996182L
aL137716518L
aL329860849L
aL107391661L
aL1470703286L
aL92127662L
aL593896941L
aL14250046L
aL372409695L
aL3605461L
aL557370963L
aL2196302095L
aL109913187L
aL225876999L
aL234105387L
aL1462624764L
aL49677470L
aL14224283L
aL15959897L
aL44998047L
aL45532830L
aL77171723L
aL182277021L
aL1077593893L
aL251135127L
aL17588064L
aL15071880L
aL36639240L
aL60724567L
aL312121307L
aL189283356L
aL21105585L
aL165184291L
aL2302928201L
aL1073540460L
aL276377326L
aL27229571L
aL216151086L
aL702776083L
aL222902799L
aL174221048L
aL1137750876L
aL728987442L
aL22469497L
aL272015568L
aL169045929L
aL134577562L
aL122005899L
aL61863888L
aL76590018L
aL60860898L
aL28882031L
aL115098044L
aL204126778L
aL1176954841L
aL159503555L
aL78012217L
aL269463124L
aL432843692L
aL38881222L
aL101762713L
aL114380464L
aL285752511L
aL22073409L
aL1490763708L
aL1191024444L
aL1349959658L
aL272437740L
aL17732890L
aL258885658L
aL109800146L
aL39034417L
aL2270297857L
aL182513770L
aL53887515L
aL18935283L
aL141993214L
aL7126792L
aL43154364L
aL134916104L
aL34089674L
aL385658477L
aL319146498L
aL349581364L
aL87377126L
aL234524536L
aL212646433L
aL367758013L
aL8156992L
aL105541248L
aL127890944L
aL33273938L
aL289958030L
aL541837738L
aL106065385L
aL79986272L
aL135639702L
aL115372958L
aL254583560L
aL119749103L
aL1068824533L
aL53867801L
aL479027451L
aL20050945L
aL155032842L
aL308115946L
aL97023602L
aL518826312L
aL908588046L
aL89493295L
aL155150766L
aL224726190L
aL21283810L
aL38173727L
aL402107501L
aL69297689L
aL53605597L
aL145635488L
aL115990569L
aL179019082L
aL208397703L
aL126073175L
aL858684914L
aL27625378L
aL59111026L
aL14970838L
aL122616145L
aL558383671L
aL30006227L
aL17546218L
aL34639843L
aL306143608L
aL407893882L
aL315800509L
aL49294526L
aL177700315L
aL190233589L
aL226929594L
aL386785730L
aL624717825L
aL95630260L
aL1712142108L
aL22659886L
aL103261190L
aL339523979L
aL70090340L
aL51466184L
aL220400069L
aL15619253L
aL873083395L
aL432962142L
aL2257020305L
aL133738207L
aL377479007L
aL191915767L
aL107144669L
aL100468283L
aL76642206L
aL2336155023L
aL2196561565L
aL401962649L
aL431828240L
aL1004983250L
aL64607125L
aL25489021L
aL153073503L
aL557386842L
aL231979600L
aL411518656L
aL141581951L
aL17008355L
aL34560519L
aL1522425259L
aL3495691L
aL12979742L
aL19202667L
aL322019378L
aL213080817L
aL1943805871L
aL313322493L
aL38832610L
aL103776837L
aL2153373876L
aL196942785L
aL1593226172L
aL140752363L
aL16143053L
aL40855587L
aL14389781L
aL84893996L
aL95610816L
aL26210265L
aL224262897L
aL1481622192L
aL49596535L
aL78354196L
aL193616695L
aL206095811L
aL44673312L
aL241267892L
aL2330138179L
aL1048290038L
aL16220627L
aL94168427L
aL318055970L
aL103679898L
aL473860142L
aL41123331L
aL326251943L
aL145620289L
aL125292498L
aL401288614L
aL366571390L
aL75804499L
aL112269765L
aL49558835L
aL14411936L
aL117703697L
aL145374496L
aL189895517L
aL82965082L
aL228021209L
aL303768379L
aL217732810L
aL19715544L
aL20262047L
aL124710879L
aL16350557L
aL40298264L
aL245081712L
aL453401642L
aL908549696L
aL195115971L
aL1079699108L
aL191044197L
aL320566688L
aL1107032605L
aL30548697L
aL153329580L
aL2354776911L
aL497742184L
aL167506363L
aL98607872L
aL9327052L
aL314527194L
aL156232917L
aL570784844L
aL489560226L
aL254513099L
aL20275714L
aL17972373L
aL10244652L
aL1243987424L
aL65013706L
aL14523567L
aL19017444L
aL21185242L
aL835160713L
aL213350277L
aL191481132L
aL1196128135L
aL614226889L
aL343973392L
aL205784210L
aL232190745L
aL121683168L
aL71356673L
aL222372671L
aL22594514L
aL769156056L
aL275491689L
aL549087523L
aL76004756L
aL35062796L
aL14479937L
aL32357147L
aL28415065L
aL357621048L
aL1479442243L
aL334632612L
aL316022590L
aL2155527671L
aL387841720L
aL73122645L
aL1446549853L
aL343460502L
aL22773865L
aL9070372L
aL24148670L
aL211633150L
aL14897331L
aL17671839L
aL86678526L
aL275908586L
aL1358867376L
aL908521832L
aL21890129L
aL89275409L
aL20541805L
aL81552360L
aL80240845L
aL414630406L
aL327536488L
aL99399670L
aL34625413L
aL18798641L
aL148045976L
aL24859861L
aL28833441L
aL142999580L
aL70654406L
aL218598118L
aL28187381L
aL192950446L
aL30710188L
aL335872692L
aL298026004L
aL35757091L
aL87649038L
aL29811120L
aL1862927954L
aL170456369L
aL313444426L
aL336694241L
aL73413462L
aL426869813L
aL244651789L
aL37624967L
aL10080532L
aL2354527599L
aL403032669L
aL2321107975L
aL217146751L
aL177888029L
aL79255570L
aL105903486L
aL614493416L
aL188379762L
aL102797536L
aL18987213L
aL46171061L
aL326554617L
aL26548402L
aL218485909L
aL166519280L
aL234537424L
aL14113083L
aL400322165L
aL37764747L
aL1361771270L
aL66643101L
aL55633537L
aL64987428L
aL1166200507L
aL1594212097L
aL376729014L
aL9375422L
aL28772063L
aL15880652L
aL1339768848L
aL118773517L
aL2258698772L
aL431612307L
aL209755331L
aL15645685L
aL154081433L
aL988857474L
aL210804650L
aL16023194L
aL38520829L
aL59777449L
aL166658361L
aL8531562L
aL105065525L
aL34878146L
aL296326777L
aL146579938L
aL212895621L
aL148463093L
aL286319944L
aL21891885L
aL100896451L
aL116018452L
aL952261897L
aL107059650L
aL46072399L
aL1550146886L
aL365044232L
aL56559272L
aL111306128L
aL38394771L
aL158025698L
aL83945363L
aL210548635L
aL21398004L
aL1356411L
aL123952812L
aL197803978L
aL103968158L
aL4580381L
aL328114314L
aL399882848L
aL119324151L
aL319714712L
aL421175717L
aL68635900L
aL83649845L
aL25876871L
aL270945809L
aL26816403L
aL38712874L
aL18374076L
aL228110168L
aL25844728L
aL222970646L
aL149248860L
aL13616622L
aL26020788L
aL204506056L
aL246196691L
aL211479363L
aL47286729L
aL9353782L
aL225005673L
aL96766416L
aL6199502L
aL54157824L
aL68977476L
aL23828541L
aL28111036L
aL215021089L
aL19073619L
aL1189L
aL34045039L
aL15264697L
aL83625661L
aL216818228L
aL291069390L
aL130092417L
aL1900330674L
aL388365386L
aL21084299L
aL472038482L
aL118684343L
aL1443008838L
aL92613324L
aL122079644L
aL97470327L
aL117701043L
aL76942158L
aL24205649L
aL473756337L
aL404029919L
aL339143910L
aL1709817884L
aL20781897L
aL192869200L
aL298145662L
aL133641463L
aL29677101L
aL400118144L
aL372358339L
aL340497267L
aL33466287L
aL600137059L
aL367433119L
aL16432053L
aL19904056L
aL16666189L
aL232979697L
aL49079684L
aL21343614L
aL158778840L
aL234122052L
aL23226880L
aL135989221L
aL27400921L
aL2280417660L
aL55522751L
aL34214252L
aL177917958L
aL396730128L
aL460183975L
aL153855595L
aL1680482845L
aL16129763L
aL2167501L
aL95922498L
aL237241638L
aL1713289574L
aL85352314L
aL20843821L
aL215063733L
aL274038427L
aL197483144L
aL452835633L
aL118174045L
aL45648745L
aL21395275L
aL90169010L
aL33318943L
aL119677602L
aL414707564L
aL39515627L
aL30061616L
aL864677268L
aL120553736L
aL154095503L
aL1151921430L
aL95914948L
aL14897720L
aL2208885679L
aL1593940350L
aL156939927L
aL142194825L
aL33523389L
aL77001427L
aL484781566L
aL89204647L
aL97671889L
aL29262236L
aL269222255L
aL100803865L
aL51385003L
aL30425039L
aL245491720L
aL89026715L
aL110270450L
aL466374589L
aL297826077L
aL12494L
aL133822454L
aL22047622L
aL8971522L
aL101196186L
aL14897990L
aL84937498L
aL58916967L
aL208969258L
aL473338003L
aL17092355L
aL8607322L
aL36647335L
aL18312827L
aL88039815L
aL807285349L
aL2956781L
aL104200081L
aL586897498L
aL194498052L
aL382252064L
aL63830565L
aL80250107L
aL238279965L
aL28066849L
aL205711224L
aL2291061301L
aL25716181L
aL14785005L
aL33757095L
aL90351876L
aL241488941L
aL189847886L
aL36032013L
aL279179287L
aL214978492L
aL2188304454L
aL102950029L
aL859518907L
aL104545421L
aL41127801L
aL35482600L
aL64693174L
aL111271517L
aL259355381L
aL160101311L
aL108309095L
aL231452438L
aL82188159L
aL47479220L
aL14461793L
aL310202912L
aL149035906L
aL172712232L
aL50383811L
aL226945106L
aL289926753L
aL1182344390L
aL134903643L
aL14580441L
aL322791209L
aL28452317L
aL1477191L
aL7382732L
aL14320841L
aL332130957L
aL1104587928L
aL1249036722L
aL361097878L
aL50455424L
aL126153431L
aL24966364L
aL28308517L
aL444496810L
aL58937294L
aL142640654L
aL13511212L
aL66357472L
aL354400184L
aL264813493L
aL557610014L
aL419975065L
aL117864009L
aL409793790L
aL172512264L
aL1578280164L
aL26494740L
aL26538667L
aL12447272L
aL281598678L
aL366048045L
aL148855032L
aL442773653L
aL182405487L
aL1725133844L
aL82164959L
aL43284962L
aL16376925L
aL398664327L
aL85289484L
aL1898580788L
aL326064551L
aL36615671L
aL245941923L
aL19702842L
aL1246836428L
aL122645953L
aL2297263107L
aL22065330L
aL22470802L
aL152567550L
aL145610716L
aL166923425L
aL63042988L
aL549991807L
aL285126846L
aL2369301464L
aL78047011L
aL123674593L
aL17778888L
aL1317911162L
aL266575654L
aL36386211L
aL209002449L
aL273383187L
aL78715280L
aL1492299463L
aL112451237L
aL262548120L
aL3465261L
aL290002178L
aL919947780L
aL16980454L
aL254996306L
aL273375876L
aL2334265181L
aL177553584L
aL10390202L
aL194716904L
aL364150633L
aL76448672L
aL235650148L
aL1722141097L
aL320122991L
aL149639825L
aL25495079L
aL27672729L
aL70728268L
aL572865197L
aL262188357L
aL153793616L
aL39759364L
aL72266006L
aL2273560631L
aL27516441L
aL40514644L
aL33717563L
aL136958529L
aL229465277L
aL167116037L
aL6960162L
aL273948167L
aL151470761L
aL383863193L
aL85441864L
aL99789244L
aL14525306L
aL30945630L
aL41799592L
aL1221593874L
aL227784934L
aL17494541L
aL21922623L
aL95880403L
aL390260324L
aL49560626L
aL13636262L
aL211169764L
aL15533733L
aL111433997L
aL23180293L
aL291991611L
aL8387822L
aL137118471L
aL40646948L
aL390655648L
aL24374939L
aL194917178L
aL33865344L
aL33847395L
aL2186402152L
aL869428795L
aL21895010L
aL50251202L
aL33202396L
aL47382272L
aL26849466L
aL14422044L
aL26812072L
aL47350273L
aL151106599L
aL86388780L
aL40441895L
aL181935444L
aL236844841L
aL56377841L
aL163009709L
aL346710780L
aL162110102L
aL82141194L
aL265941696L
aL197082571L
aL19399127L
aL934874316L
aL296384040L
aL791651713L
aL131868452L
aL101877308L
aL474896772L
aL382310685L
aL229937646L
aL39256949L
aL2171289431L
aL119742819L
aL14189654L
aL217206450L
aL371217188L
aL1176674989L
aL466396974L
aL225061401L
aL223594504L
aL2278166366L
aL303859396L
aL17231703L
aL370860718L
aL89789370L
aL10642252L
aL228343920L
aL266740357L
aL117400478L
aL154057210L
aL1213934678L
aL243756177L
aL46630670L
aL17196994L
aL259800082L
aL167409925L
aL14169716L
aL9158322L
aL404315398L
aL15957019L
aL416718751L
aL155903538L
aL21776064L
aL350787413L
aL19670129L
aL217521914L
aL19067024L
aL1283571018L
aL39342791L
aL288700557L
aL33172816L
aL79743363L
aL193086145L
aL327921345L
aL230278825L
aL40119140L
aL1192925514L
aL400834270L
aL244617281L
aL15536268L
aL104118363L
aL287345403L
aL794801L
aL79423947L
aL1585336574L
aL44609441L
aL139056869L
aL164260370L
aL87425004L
aL76779553L
aL142378254L
aL18684681L
aL124210260L
aL9594462L
aL51116921L
aL1465642441L
aL102362917L
aL180795521L
aL112005339L
aL589935047L
aL725854225L
aL102909134L
aL89906106L
aL604598067L
aL51426445L
aL633706121L
aL14169646L
aL75209118L
aL93604880L
aL274524762L
aL165770666L
aL22041835L
aL299006750L
aL1043365310L
aL2188820214L
aL29047490L
aL23069404L
aL55237966L
aL146068604L
aL333348047L
aL873357522L
aL23607921L
aL26467859L
aL188227539L
aL22140797L
aL133446591L
aL320812444L
aL17049129L
aL133407436L
aL271052608L
aL19983164L
aL95275353L
aL22341389L
aL347189397L
aL121844960L
aL1241354515L
aL207031976L
aL156783914L
aL415520942L
aL60667515L
aL1342177537L
aL83440958L
aL111657873L
aL621486457L
aL77323859L
aL285230384L
aL32339805L
aL325192140L
aL252586975L
aL183525795L
aL170757564L
aL9594612L
aL390397707L
aL1071602635L
aL7507762L
aL191431939L
aL1667509022L
aL3605231L
aL110243876L
aL48852427L
aL49764377L
aL34688332L
aL199438632L
aL897117739L
aL1151189143L
aL1486388892L
aL198640723L
aL401652750L
aL108887338L
aL155910182L
aL172303130L
aL14363184L
aL179661956L
aL123861861L
aL602983403L
aL282052915L
aL163421278L
aL12846992L
aL215234313L
aL274386026L
aL125325513L
aL21009057L
aL155206170L
aL373604379L
aL249165361L
aL275956142L
aL388055064L
aL21081170L
aL623740125L
aL7396282L
aL40015647L
aL384380969L
aL7941952L
aL24663625L
aL186807106L
aL782983634L
aL1306916844L
aL137395068L
aL18971093L
aL400225458L
aL209954658L
aL270838847L
aL15396470L
aL1439366106L
aL171266179L
aL635590527L
aL236920698L
aL72113961L
aL396073623L
aL390812955L
aL34589185L
aL253556181L
aL29048033L
aL493964075L
aL267835069L
aL102973251L
aL132331509L
aL19233975L
aL395397822L
aL271509421L
aL73084631L
aL376303004L
aL136133653L
aL223854459L
aL73890180L
aL169174344L
aL25821581L
aL279761188L
aL14067966L
aL24167229L
aL18193793L
aL217563211L
aL2230135037L
aL971748320L
aL89506873L
aL87052923L
aL53120339L
aL57692502L
aL343592658L
aL18415158L
aL14077580L
aL17923074L
aL167818696L
aL6348302L
aL22467315L
aL158427849L
aL33193658L
aL234863336L
aL291058440L
aL1225860612L
aL606385140L
aL224795586L
aL158472138L
aL160126023L
aL1629351080L
aL407190709L
aL31139663L
aL319775769L
aL162489029L
aL200277235L
aL191426257L
aL29185936L
aL317979344L
aL2356993563L
aL33637165L
aL9499462L
aL92361314L
aL402179021L
aL66357980L
aL158666977L
aL39803064L
aL35761720L
aL253583839L
aL209606167L
aL824994924L
aL367615893L
aL11547122L
aL151755715L
aL275591022L
aL915471888L
aL149419916L
aL1895890693L
aL31775607L
aL211270870L
aL182326370L
aL317153184L
aL1969614751L
aL101029411L
aL389352254L
aL120204788L
aL522073704L
aL61074215L
aL54547159L
aL252038685L
aL223637700L
aL197098069L
aL1701384254L
aL22000194L
aL23359929L
aL5938612L
aL137674067L
aL108778658L
aL50450220L
aL21022668L
aL339169398L
aL85347540L
aL98735391L
aL489737238L
aL25569165L
aL173517018L
aL22034479L
aL2297466170L
aL242090158L
aL83572879L
aL599443420L
aL1338428202L
aL337882041L
aL586804462L
aL187939912L
aL2327098460L
aL181645679L
aL443155878L
aL100512454L
aL382601292L
aL126579216L
aL310578525L
aL126913615L
aL20438716L
aL341037708L
aL39265442L
aL25144017L
aL26518408L
aL215909308L
aL452961774L
aL1119226268L
aL21874557L
aL521363226L
aL234682815L
aL123917277L
aL377400229L
aL128502317L
aL29978065L
aL34014661L
aL2151524253L
aL146133904L
aL322809686L
aL47348243L
aL573523561L
aL20040642L
aL936853393L
aL14353690L
aL101091863L
aL18720799L
aL18213081L
aL24172656L
aL153332690L
aL236374049L
aL142314483L
aL29719872L
aL117030044L
aL176758301L
aL39733480L
aL202185581L
aL15459132L
aL354632490L
aL26058356L
aL1936288627L
aL130471753L
aL22330861L
aL11085342L
aL209232504L
aL1262614471L
aL358176407L
aL188651023L
aL254611763L
aL280419565L
aL171291045L
aL20249298L
aL130945488L
aL18904600L
aL21078798L
aL2290318755L
aL18478817L
aL77686689L
aL286130658L
aL307408201L
aL197802576L
aL2277511899L
aL98136223L
aL1382520174L
aL1621148256L
aL262581798L
aL89296362L
aL18663791L
aL26107229L
aL584731089L
aL27415511L
aL18640851L
aL236680977L
aL41606475L
aL349831778L
aL84542730L
aL45047078L
aL28759278L
aL18868951L
aL143139421L
aL20907048L
aL1280132749L
aL190183224L
aL114700907L
aL14067130L
aL1865718103L
aL442002622L
aL449796119L
aL18645102L
aL1400169548L
aL346146287L
aL124244291L
aL388265663L
aL29290365L
aL27623131L
aL256898079L
aL901772538L
aL22029974L
aL105549427L
aL555324356L
aL328812428L
aL389179867L
aL258083797L
aL280192966L
aL16903235L
aL431888265L
aL244239893L
aL2262159273L
aL32822769L
aL105450568L
aL94181063L
aL287279363L
aL15722527L
aL2147810040L
aL246483266L
aL491112173L
aL14628886L
aL97920946L
aL116931426L
aL38637693L
aL18476862L
aL243691466L
aL356638909L
aL111409550L
aL294380867L
aL18031232L
aL2339162303L
aL257539525L
aL23735848L
aL37624958L
aL16556688L
aL83203143L
aL219350289L
aL501746986L
aL299786305L
aL560484033L
aL466794203L
aL35251368L
aL166945520L
aL1100813311L
aL5594582L
aL250270095L
aL16308186L
aL315819525L
aL16353457L
aL1112680682L
aL48099541L
aL260262615L
aL410377695L
aL68348110L
aL1570868707L
aL61893360L
aL361729250L
aL403662259L
aL22178631L
aL40858205L
aL40198330L
aL478337528L
aL287078681L
aL230733462L
aL382149638L
aL184629663L
aL39494804L
aL2214786974L
aL565687566L
aL119042600L
aL91568558L
aL77785227L
aL126962279L
aL8206892L
aL1331298980L
aL47091719L
aL30862232L
aL17270304L
aL1360248638L
aL153858950L
aL18044745L
aL107394425L
aL2277141L
aL189453464L
aL8016702L
aL218783717L
aL441673174L
aL61305123L
aL17774661L
aL1275901L
aL278199901L
aL2207393802L
aL56322622L
aL17596501L
aL24354277L
aL74453051L
aL274630176L
aL132968977L
aL631429151L
aL201295596L
aL284139852L
aL24357545L
aL352934145L
aL114060427L
aL219225337L
aL57573340L
aL222106393L
aL302192086L
aL787563410L
aL355820507L
aL33977667L
aL119914724L
aL2321505698L
aL489195050L
aL331460705L
aL150570633L
aL10822272L
aL1208785148L
aL20068447L
aL19287840L
aL259986703L
aL2377461453L
aL399943936L
aL39964596L
aL615657975L
aL25830195L
aL140047619L
aL6079912L
aL334282612L
aL505985841L
aL152755588L
aL930568806L
aL387362730L
aL1425770773L
aL262318141L
aL22344787L
aL431428284L
aL471209842L
aL149114511L
aL16951109L
aL253129528L
aL185343779L
aL1975143871L
aL25983412L
aL13174062L
aL164681058L
aL232598020L
aL221535345L
aL318929307L
aL541446938L
aL92309335L
aL28129058L
aL377251851L
aL216074003L
aL323154533L
aL16493704L
aL282064182L
aL14810190L
aL751725380L
aL1725575274L
aL219974951L
aL213366264L
aL109021506L
aL160871960L
aL173709899L
aL2217734042L
aL78876065L
aL253588787L
aL707864485L
aL808265563L
aL6710812L
aL97619104L
aL42088249L
aL60375946L
aL34745307L
aL466846247L
aL175578267L
aL15218545L
aL850153040L
aL122800168L
aL94163387L
aL92106169L
aL200645789L
aL304495456L
aL471190628L
aL1128272047L
aL19438290L
aL21424790L
aL24769083L
aL61595339L
aL10885732L
aL189930541L
aL24949327L
aL163529651L
aL99117716L
aL358348063L
aL2187558865L
aL190021528L
aL254987686L
aL22462044L
aL29257879L
aL1057612405L
aL369188826L
aL84988937L
aL28118911L
aL796818661L
aL103017564L
aL794340188L
aL102017029L
aL2381069871L
aL14094765L
aL301108411L
aL85633297L
aL148948674L
aL69255584L
aL14830474L
aL112894373L
aL1162823408L
aL197933271L
aL31419128L
aL2258784341L
aL196519732L
aL325501551L
aL19976295L
aL151469600L
aL36921010L
aL62844592L
aL437607426L
aL15796459L
aL215360399L
aL28682044L
aL1688652169L
aL2302874762L
aL1142684892L
aL102402934L
aL5953132L
aL92034840L
aL20304784L
aL206711360L
aL65743789L
aL218478759L
aL22770688L
aL9916822L
aL22249755L
aL200864044L
aL102767947L
aL135261752L
aL42786171L
aL440285812L
aL61194177L
aL243194669L
aL72498236L
aL255229909L
aL1457041614L
aL195287000L
aL231051413L
aL108779955L
aL266569687L
aL27782174L
aL219112750L
aL374444913L
aL96947937L
aL61453809L
aL143215102L
aL42890041L
aL15500980L
aL107149317L
aL30270054L
aL33268754L
aL26124914L
aL407782150L
aL32928580L
aL14650034L
aL197473791L
aL167076686L
aL243592267L
aL61329864L
aL95402736L
aL78525946L
aL153551842L
aL166173761L
aL35872483L
aL7354582L
aL213515018L
aL253953257L
aL91303419L
aL18946345L
aL85952304L
aL357887483L
aL14439621L
aL257671181L
aL64047782L
aL143755828L
aL45985777L
aL620789619L
aL34485253L
aL174212595L
aL254266931L
aL266646852L
aL130367116L
aL950564846L
aL258524284L
aL179359962L
aL271387399L
aL1537519686L
aL35295031L
aL46013904L
aL452278484L
aL317772069L
aL156670472L
aL171468331L
aL1040701512L
aL21583272L
aL109530830L
aL17850816L
aL26519984L
aL103329368L
aL34630190L
aL17290360L
aL17536535L
aL18678982L
aL97633281L
aL15704207L
aL14884613L
aL370284053L
aL19960564L
aL17813076L
aL128632944L
aL124730396L
aL2367594223L
aL180292719L
aL1509873096L
aL8911512L
aL52055757L
aL28627542L
aL96520169L
aL129204816L
aL24433187L
aL519372067L
aL116557975L
aL288135247L
aL97774963L
aL44088843L
aL227111635L
aL25882724L
aL26201971L
aL174192182L
aL179671841L
aL1551564912L
aL24101795L
aL142645609L
aL417520092L
aL10284612L
aL38228581L
aL28244552L
aL371189525L
aL356944954L
aL40347248L
aL81602002L
aL244870309L
aL14124752L
aL30523869L
aL62092800L
aL232154991L
aL1575177037L
aL183370918L
aL66195262L
aL38646725L
aL269852513L
aL22817998L
aL18094121L
aL95611383L
aL329023780L
aL153509777L
aL2370674312L
aL18863278L
aL255289336L
aL244606934L
aL479232133L
aL39998213L
aL21856690L
aL98956974L
aL33901765L
aL86270686L
aL44602952L
aL369592326L
aL37399688L
aL23016917L
aL521668468L
aL174012044L
aL22763875L
aL154531024L
aL91824380L
aL97535705L
aL129507294L
aL189963178L
aL333451822L
aL28184664L
aL480409309L
aL49741099L
aL99428845L
aL41878764L
aL251160543L
aL181161830L
aL23498183L
aL838434895L
aL810977526L
aL135949918L
aL61774502L
aL532742993L
aL199189235L
aL30200958L
aL990855014L
aL965L
aL257455876L
aL2287404761L
aL632704239L
aL137261287L
aL187842929L
aL1527129146L
aL168457378L
aL7136792L
aL18186766L
aL25975016L
aL246208289L
aL49327185L
aL624803745L
aL849636415L
aL10101252L
aL37187599L
aL2365671L
aL33203339L
aL306369661L
aL371003374L
aL22896374L
aL251285061L
aL103992440L
aL373985682L
aL151242346L
aL258036692L
aL92718281L
aL38818727L
aL119819909L
aL119460008L
aL314327915L
aL19759438L
aL442512177L
aL501854072L
aL36496297L
aL483834232L
aL16433437L
aL22754990L
aL223826653L
aL324085739L
aL404138113L
aL105797507L
aL25485160L
aL263347119L
aL1060926864L
aL251727101L
aL21028731L
aL20567784L
aL116243010L
aL14509775L
aL25834541L
aL379927119L
aL62079576L
aL371456297L
aL51142823L
aL1937115548L
aL27276850L
aL19484786L
aL38433767L
aL100786035L
aL292113283L
aL321166544L
aL902361402L
aL18697605L
aL461387886L
aL26721993L
aL142583894L
aL21580592L
aL232193826L
aL42503315L
aL201789953L
aL146567963L
aL126737822L
aL392243169L
aL476706241L
aL58525276L
aL1368868969L
aL18825961L
aL11305L
aL8313802L
aL22808890L
aL1068558745L
aL217380516L
aL265262631L
aL22280976L
aL128956136L
aL183166732L
aL369578212L
aL340281017L
aL485055667L
aL109072354L
aL2190567756L
aL6494082L
aL151040208L
aL825993998L
aL47974300L
aL1036621110L
aL116223968L
aL119768869L
aL834948073L
aL118828496L
aL1638949502L
aL382852924L
aL295464111L
aL277784151L
aL115593601L
aL287981903L
aL286412324L
aL227024372L
aL1345474508L
aL24011136L
aL161706327L
aL232948999L
aL36168851L
aL60377193L
aL44824559L
aL171623021L
aL459602085L
aL260836316L
aL416678819L
aL23160045L
aL47238329L
aL153258430L
aL137327803L
aL53822870L
aL117116262L
aL232369975L
aL35526345L
aL21671745L
aL318340658L
aL437446141L
aL346606535L
aL798876732L
aL97507777L
aL600076084L
aL21051918L
aL25065798L
aL794526486L
aL117678105L
aL40840092L
aL157792608L
aL435074615L
aL266617884L
aL216809551L
aL44875739L
aL30226730L
aL318673215L
aL1071592890L
aL75921484L
aL14952463L
aL66433230L
aL138395734L
aL153173277L
aL22121560L
aL99979078L
aL267088828L
aL29941025L
aL293706018L
aL42684573L
aL14059224L
aL239275875L
aL271526282L
aL39522444L
aL66791252L
aL17615837L
aL823678838L
aL375144692L
aL365653766L
aL406338915L
aL399279391L
aL69947523L
aL249641065L
aL36634501L
aL2170257751L
aL16417938L
aL616382503L
aL495275732L
aL16903651L
aL141600125L
aL103049323L
aL80395100L
aL7952902L
aL14881150L
aL24959260L
aL18323652L
aL81284572L
aL349772152L
aL320781226L
aL64215331L
aL17139765L
aL82942512L
aL15140872L
aL218732435L
aL439045645L
aL102701242L
aL84593928L
aL901454522L
aL138553277L
aL21336569L
aL112663748L
aL125452440L
aL20226619L
aL20498520L
aL27010057L
aL9297152L
aL817951878L
aL20460478L
aL205289180L
aL333555619L
aL97655662L
aL789923928L
aL397127796L
aL216802354L
aL178194669L
aL518039273L
aL553728253L
aL313844985L
aL421344743L
aL294823657L
aL21303440L
aL497923442L
aL149576581L
aL171994027L
aL25495974L
aL390908988L
aL825027751L
aL79564691L
aL66627326L
aL21233035L
aL208205254L
aL14226513L
aL84009227L
aL270040930L
aL95083385L
aL261190243L
aL2157488632L
aL273735068L
aL17463L
aL276445468L
aL31140229L
aL118103527L
aL1078562006L
aL127047193L
aL10382522L
aL22985886L
aL362788039L
aL231439363L
aL21686438L
aL65447998L
aL52586630L
aL1587577730L
aL104762869L
aL391357555L
aL185701107L
aL48482586L
aL21101061L
aL228773141L
aL232510370L
aL583758064L
aL21315411L
aL2248951117L
aL101845498L
aL41807179L
aL19973043L
aL14089332L
aL309636826L
aL300209738L
aL3305991L
aL1532079181L
aL27850794L
aL46614187L
aL21992547L
aL1662231494L
aL146349860L
aL788662723L
aL1379941476L
aL429032279L
aL286718359L
aL6165312L
aL255149041L
aL18266124L
aL604836411L
aL46877946L
aL452331064L
aL229948451L
aL802020505L
aL26076103L
aL225150230L
aL2269068959L
aL319565570L
aL1358761933L
aL2330762646L
aL305192614L
aL232303382L
aL264145402L
aL273109724L
aL1369636328L
aL120161490L
aL289034366L
aL41743265L
aL208229271L
aL488268629L
aL53424917L
aL116791733L
aL359907304L
aL1095605449L
aL281715534L
aL20601516L
aL14673099L
aL238905139L
aL136755727L
aL1087377542L
aL957537163L
aL15830287L
aL29198071L
aL1416357308L
aL412955212L
aL97426684L
aL810632184L
aL55556077L
aL470064698L
aL72362173L
aL15105698L
aL67561370L
aL33857179L
aL17712544L
aL224579907L
aL234814328L
aL120441498L
aL401634324L
aL247842830L
aL60429771L
aL26207656L
aL264821428L
aL1236945110L
aL378963923L
aL88114395L
aL25068069L
aL1998801L
aL251813878L
aL358825849L
aL31923718L
aL162984436L
aL313430745L
aL99693330L
aL987630650L
aL1266948019L
aL128015423L
aL293188827L
aL160888125L
aL75766149L
aL43475940L
aL19180358L
aL220817561L
aL177844497L
aL321520541L
aL173524961L
aL2239452850L
aL147603101L
aL1415530196L
aL19389670L
aL82942333L
aL2289357026L
aL38152242L
aL132429852L
aL232740025L
aL1337658770L
aL103266233L
aL46371703L
aL210932063L
aL413437357L
aL15353560L
aL93492055L
aL48388866L
aL91589046L
aL66734277L
aL284649793L
aL56736712L
aL408441920L
aL1089887364L
aL164392810L
aL39580177L
aL592166566L
aL334581542L
aL52808323L
aL54680034L
aL29558808L
aL357482272L
aL30113269L
aL492409154L
aL15070678L
aL279621348L
aL291700236L
aL321549388L
aL167709694L
aL21774829L
aL24670268L
aL780299252L
aL14566379L
aL29327978L
aL158654072L
aL261336030L
aL139087664L
aL103850592L
aL122315347L
aL14263170L
aL18019704L
aL92645081L
aL42725441L
aL528526863L
aL85060258L
aL27889574L
aL299842064L
aL1557734875L
aL40648143L
aL3603381L
aL81838481L
aL606689526L
aL43151583L
aL376344150L
aL795029L
aL563598121L
aL125345597L
aL40898195L
aL1665200894L
aL850942783L
aL117751388L
aL15123270L
aL397915021L
aL22787911L
aL44579742L
aL162789505L
aL107689688L
aL282477047L
aL1124936515L
aL135910962L
aL821094991L
aL20590636L
aL39993424L
aL218838887L
aL146144674L
aL157828143L
aL136682526L
aL339030418L
aL20164943L
aL112141704L
aL20188840L
aL26586281L
aL17257544L
aL24856557L
aL18695862L
aL23535749L
aL2301481L
aL237623014L
aL206336873L
aL44985784L
aL32853129L
aL122174872L
aL257522931L
aL95986507L
aL30950389L
aL54874120L
aL54611553L
aL67686811L
aL19537156L
aL18992911L
aL82370079L
aL19663092L
aL272419626L
aL86583440L
aL217750377L
aL132894498L
aL140379254L
aL427695287L
aL24891726L
aL9993492L
aL26742332L
aL98716296L
aL25201451L
aL20255896L
aL475195525L
aL26805755L
aL232795354L
aL555998239L
aL212564088L
aL124589513L
aL52814319L
aL21177568L
aL82099158L
aL180870637L
aL37707232L
aL308571038L
aL225021853L
aL186164985L
aL96182831L
aL35445799L
aL58566904L
aL69675659L
aL288274693L
aL922338162L
aL124487337L
aL46435176L
aL281451992L
aL26569408L
aL438181996L
aL23849030L
aL314582166L
aL1894775792L
aL1409511360L
aL103687551L
aL12871342L
aL20502167L
aL340771281L
aL1278743082L
aL27583345L
aL469289871L
aL317223818L
aL19658683L
aL1196151877L
aL229931318L
aL155998375L
aL94726814L
aL61641008L
aL25786375L
aL194934426L
aL23303078L
aL49420134L
aL15686909L
aL460990555L
aL2308707502L
aL204927832L
aL278679627L
aL241989899L
aL21451254L
aL18127217L
aL179187944L
aL51483150L
aL2269111L
aL1385176242L
aL1579990766L
aL147743495L
aL238259387L
aL243341290L
aL26037604L
aL30488500L
aL24370923L
aL250672963L
aL81367297L
aL1452466748L
aL1529005045L
aL410279660L
aL2324062442L
aL868582124L
aL906114254L
aL99711719L
aL122393808L
aL119332550L
aL254558641L
aL432722780L
aL35678907L
aL15774692L
aL210217994L
aL2310789290L
aL101526822L
aL252740446L
aL405166107L
aL18937362L
aL198965757L
aL46066682L
aL68737520L
aL48136876L
aL51115858L
aL15228789L
aL17808152L
aL266739548L
aL537217645L
aL3238051L
aL19860633L
aL255607709L
aL171037552L
aL68470658L
aL32125923L
aL114871414L
aL1487381528L
aL33192987L
aL245306378L
aL853771632L
aL14918855L
aL19725861L
aL16465880L
aL14953154L
aL184000147L
aL115919728L
aL16113552L
aL182537368L
aL38294112L
aL145560586L
aL20840204L
aL105921118L
aL2176129300L
aL192916802L
aL107721275L
aL29330002L
aL18759670L
aL44332613L
aL1656082644L
aL83806205L
aL17285556L
aL520166924L
aL21200152L
aL118379443L
aL5260441L
aL21196735L
aL71250642L
aL61850702L
aL255643122L
aL389065557L
aL17022010L
aL412860843L
aL117083284L
aL16000234L
aL407136354L
aL1880284116L
aL550837214L
aL145632238L
aL182502918L
aL424744183L
aL230531033L
aL798919741L
aL24891905L
aL1299593102L
aL195509013L
aL537377605L
aL14233730L
aL33200351L
aL73362825L
aL117006895L
aL465699161L
aL1471491734L
aL90784266L
aL99936388L
aL81330262L
aL184156110L
aL23937311L
aL49897701L
aL14763772L
aL2256026404L
aL398997543L
aL392667373L
aL277730853L
aL22138756L
aL108908176L
aL1736056075L
aL90617199L
aL499169528L
aL148473985L
aL129921938L
aL89287667L
aL127245453L
aL857682962L
aL93913246L
aL307146484L
aL460600484L
aL429219069L
aL257398640L
aL10185192L
aL2273461L
aL1636606465L
aL357656151L
aL78946165L
aL77292385L
aL2274656749L
aL288889548L
aL35836019L
aL275100481L
aL145725567L
aL35198961L
aL20154351L
aL1960359121L
aL74598233L
aL15118521L
aL247261546L
aL45411813L
aL1193983795L
aL813739392L
aL26019356L
aL39778689L
aL193479889L
aL263846902L
aL141869044L
aL23735808L
aL1385875081L
aL38202831L
aL38871032L
aL226282171L
aL12549862L
aL53650331L
aL153939663L
aL15230226L
aL299413085L
aL29458705L
aL14250415L
aL175699090L
aL235139831L
aL14742525L
aL148769902L
aL164038553L
aL95359068L
aL18057001L
aL15137032L
aL18895680L
aL26854946L
aL147488908L
aL46415741L
aL255632929L
aL44326081L
aL382249274L
aL856148082L
aL267727461L
aL204485255L
aL108677393L
aL108227623L
aL216382634L
aL1058490410L
aL1283085428L
aL482523485L
aL1160822221L
aL40969781L
aL418382478L
aL448183088L
aL9517322L
aL714101532L
aL634934217L
aL259844715L
aL23095184L
aL636319297L
aL152162183L
aL957508663L
aL1672996711L
aL215043136L
aL22244376L
aL332920789L
aL140604133L
aL1949801095L
aL1370517751L
aL14670047L
aL121159096L
aL294022129L
aL78561312L
aL538050792L
aL463053101L
aL221482837L
aL313877555L
aL39267005L
aL97930763L
aL128315676L
aL264272962L
aL314749056L
aL358894424L
aL200668044L
aL1100918599L
aL1465855860L
aL27065444L
aL20551358L
aL196191102L
aL14688092L
aL208269429L
aL20270581L
aL197724187L
aL190709730L
aL217087120L
aL197405936L
aL50961025L
aL272369229L
aL86036793L
aL151786285L
aL212003897L
aL18416728L
aL2319781976L
aL186095802L
aL338294705L
aL186424295L
aL420309180L
aL28383147L
aL244185027L
aL34224088L
aL400379738L
aL5976672L
aL114157119L
aL291247680L
aL73714513L
aL63788673L
aL232305951L
aL34700869L
aL2250438873L
aL87896654L
aL33217723L
aL27944926L
aL16029297L
aL335111342L
aL441924236L
aL186582716L
aL19193715L
aL456241736L
aL23358745L
aL426756767L
aL109127032L
aL14996180L
aL2199414454L
aL54909291L
aL10304832L
aL171839324L
aL34911917L
aL22176758L
aL80845541L
aL27566700L
aL29962593L
aL16670622L
aL19593939L
aL15749293L
aL308603964L
aL1533768720L
aL267179383L
aL1655632268L
aL24677595L
aL26077970L
aL206651028L
aL17470533L
aL68518704L
aL27966092L
aL39741593L
aL41811208L
aL99188634L
aL66160178L
aL301526604L
aL495456036L
aL21687228L
aL89456093L
aL41099058L
aL246367532L
aL2359917923L
aL724218704L
aL215185982L
aL87411899L
aL289027520L
aL83790615L
aL136361071L
aL10425932L
aL153332665L
aL246679185L
aL13168022L
aL24709342L
aL21335222L
aL155558745L
aL417333606L
aL387602105L
aL39482290L
aL238083769L
aL2378617483L
aL163943352L
aL43757179L
aL193657011L
aL399558946L
aL1653743826L
aL186314117L
aL588948289L
aL251675121L
aL41338540L
aL1022298763L
aL76009344L
aL152969271L
aL433691050L
aL142796988L
aL164260572L
aL30028497L
aL987282722L
aL562260433L
aL153755852L
aL296230545L
aL94087524L
aL472100788L
aL96929431L
aL1050584180L
aL220799046L
aL259979245L
aL38840464L
aL2344634573L
aL2342354323L
aL20135788L
aL42867580L
aL341152870L
aL1624329492L
aL25504160L
aL177843351L
aL1033100208L
aL14059304L
aL17037783L
aL19534188L
aL225842440L
aL241543184L
aL1632411L
aL180937246L
aL19387823L
aL107690959L
aL18759478L
aL268266398L
aL200197586L
aL253370981L
aL583791684L
aL103947337L
aL92720940L
aL493101219L
aL2205623071L
aL312036971L
aL2360668949L
aL965787841L
aL406417338L
aL504172953L
aL531190500L
aL1305691232L
aL20225027L
aL10026382L
aL1903767426L
aL16401322L
aL23723768L
aL144495411L
aL322102891L
aL214120635L
aL18213569L
aL12107072L
aL390037532L
aL21999474L
aL170748780L
aL47063765L
aL14825244L
aL56157929L
aL31478559L
aL33257249L
aL15032299L
aL96560863L
aL570161020L
aL246245256L
aL13614712L
aL96662857L
aL76612038L
aL514391132L
aL363618803L
aL28531617L
aL375017522L
aL274176705L
aL9710302L
aL89445290L
aL18790530L
aL33704630L
aL18911703L
aL4023011L
aL821019852L
aL185260966L
aL119869081L
aL315403939L
aL201216996L
aL44912195L
aL297583011L
aL355072923L
aL397041201L
aL1897228994L
aL18886174L
aL101632012L
aL472221565L
aL398956882L
aL426865587L
aL16056803L
aL22041300L
aL19598233L
aL119924496L
aL54133389L
aL44876099L
aL249695027L
aL104116128L
aL878029741L
aL104452810L
aL255415396L
aL1487221L
aL63471963L
aL71547462L
aL151052803L
aL14721987L
aL167374201L
aL238295393L
aL387892531L
aL68568375L
aL15278142L
aL78380817L
aL153866156L
aL390124791L
aL30731219L
aL23587702L
aL98128818L
aL2323421511L
aL2373766329L
aL1365574302L
aL117050522L
aL375135031L
aL142586895L
aL97436908L
aL393371868L
aL67155761L
aL739148018L
aL200444737L
aL928077446L
aL8907552L
aL97749374L
aL341676416L
aL9731372L
aL1945000308L
aL255135150L
aL60446377L
aL455679829L
aL392723015L
aL254752919L
aL15765018L
aL139043340L
aL111527083L
aL221897398L
aL205666786L
aL147880733L
aL262862359L
aL34869140L
aL113312923L
aL214880966L
aL519577333L
aL21302703L
aL366103004L
aL281517879L
aL408079830L
aL576592224L
aL353795366L
aL148060347L
aL135073267L
aL550511160L
aL23702340L
aL954166728L
aL173510016L
aL15807603L
aL124724205L
aL912465757L
aL38643569L
aL90894370L
aL1465370210L
aL209681038L
aL37744684L
aL389510852L
aL240702117L
aL475999055L
aL111424035L
aL2151030457L
aL36348796L
aL16663696L
aL186000217L
aL95346009L
aL239748312L
aL18837033L
aL19535606L
aL23952871L
aL819522L
aL288855183L
aL204332921L
aL16053172L
aL228729159L
aL218909495L
aL101039263L
aL198493780L
aL1137284324L
aL30492324L
aL2259082931L
aL952344068L
aL83765986L
aL219727277L
aL220385039L
aL620878919L
aL731669984L
aL13705422L
aL401427063L
aL137036189L
aL133233925L
aL305705866L
aL115775461L
aL19352921L
aL233226967L
aL305291837L
aL300805043L
aL139674398L
aL15894781L
aL248290744L
aL29504421L
aL99256307L
aL319019316L
aL3247001L
aL19285599L
aL861025926L
aL154177774L
aL288893582L
aL365338880L
aL32730012L
aL1140622501L
aL93623909L
aL49848195L
aL14733628L
aL1556566921L
aL190323720L
aL1020496418L
aL126319859L
aL1063644752L
aL820564729L
aL486746603L
aL483237829L
aL140813476L
aL341753857L
aL88509692L
aL232534486L
aL90613135L
aL839591304L
aL22227552L
aL245464329L
aL274534744L
aL2264714155L
aL227688565L
aL518207477L
aL1696356048L
aL243729531L
aL315270722L
aL202995426L
aL454333594L
aL1456411L
aL18773190L
aL170843207L
aL166111765L
aL590252041L
aL1358320340L
aL189695864L
aL194661393L
aL126781702L
aL164334881L
aL46461503L
aL81034933L
aL132937697L
aL128930903L
aL191377891L
aL67332822L
aL149463568L
aL953567689L
aL1275579342L
aL552588157L
aL126419185L
aL2357222392L
aL4513401L
aL1075481106L
aL240119562L
aL25446900L
aL213984483L
aL85388098L
aL98161740L
aL135441362L
aL82182428L
aL15168329L
aL142420964L
aL967459069L
aL1134803070L
aL105084772L
aL172063654L
aL503286736L
aL91821728L
aL2250116795L
aL341653655L
aL61141111L
aL87452603L
aL235982737L
aL390724136L
aL484819009L
aL99923394L
aL38433345L
aL266024534L
aL17074784L
aL285213031L
aL17833237L
aL185834559L
aL22757888L
aL413248945L
aL1244409458L
aL21110367L
aL1006252387L
aL8516102L
aL45057316L
aL751289240L
aL110744008L
aL254218490L
aL241984513L
aL23871926L
aL18797072L
aL474734603L
aL1515931160L
aL136746267L
aL224622985L
aL240555345L
aL284115979L
aL499916278L
aL873246230L
aL411511108L
aL277236041L
aL304966675L
aL163015842L
aL2190582661L
aL19553578L
aL577358673L
aL167920814L
aL23095057L
aL584081927L
aL553588441L
aL1251133825L
aL295884732L
aL2353367065L
aL179154304L
aL464911917L
aL118728401L
aL2230015146L
aL880522495L
aL273593084L
aL153249185L
aL813189193L
aL368683227L
aL914200369L
aL100213081L
aL53772344L
aL29700270L
aL227944128L
aL508271904L
aL90565142L
aL551754988L
aL112201389L
aL344150040L
aL14201559L
aL9265592L
aL213235131L
aL72869069L
aL166636524L
aL292825344L
aL118838023L
aL933829272L
aL102096552L
aL82713982L
aL19470206L
aL387368469L
aL60892586L
aL21880554L
aL94179882L
aL352968971L
aL49631574L
aL14900439L
aL95393859L
aL51572352L
aL99885307L
aL2368806508L
aL14175602L
aL278151783L
aL620196953L
aL1431106339L
aL1029272586L
aL118704405L
aL1027069916L
aL105874145L
aL886413888L
aL335071617L
aL200900797L
aL1292440290L
aL274052345L
aL259687851L
aL1924857296L
aL20715084L
aL1172865828L
aL211329176L
aL107767597L
aL391796345L
aL1308139022L
aL123013420L
aL2208953382L
aL79684242L
aL51029589L
aL1362290336L
aL85546692L
aL172945476L
aL16456125L
aL19230968L
aL1139558184L
aL15647738L
aL111641390L
aL104191284L
aL14131121L
aL217841353L
aL33298442L
aL1913640391L
aL507384298L
aL2284423656L
aL163223134L
aL68646499L
aL150982050L
aL854859272L
aL141649116L
aL184035416L
aL328070273L
aL235302282L
aL1519152272L
aL8389272L
aL284830614L
aL97027548L
aL223074145L
aL316974029L
aL1068195782L
aL65872090L
aL20606603L
aL135956338L
aL143199489L
aL78030296L
aL19441348L
aL23431950L
aL56436376L
aL55297430L
aL59730204L
aL117059950L
aL963111L
aL1542598142L
aL32947337L
aL10095802L
aL542405293L
aL923404363L
aL238097946L
aL14909808L
aL8199202L
aL226525652L
aL220463927L
aL755797106L
aL359999197L
aL784381958L
aL22769189L
aL25594268L
aL29943632L
aL174642559L
aL2363548661L
aL21295467L
aL135923561L
aL28355075L
aL201807583L
aL323423299L
aL14397341L
aL219125563L
aL34279630L
aL2149098032L
aL46407002L
aL788250L
aL138847067L
aL10243372L
aL598544562L
aL366444750L
aL244652267L
aL220326805L
aL91098400L
aL3293211L
aL229552791L
aL296833665L
aL332401481L
aL18936645L
aL18283265L
aL99494153L
aL289881291L
aL2278938781L
aL18074207L
aL13211712L
aL140048325L
aL37948049L
aL113750924L
aL105532622L
aL210832026L
aL37088570L
aL32386166L
aL32701529L
aL32189631L
aL20726522L
aL218003553L
aL107113067L
aL160460292L
aL301086046L
aL143189561L
aL82316128L
aL2322938442L
aL72487533L
aL100057386L
aL1337350638L
aL1399381L
aL989366167L
aL110646581L
aL836273448L
aL53368321L
aL14777069L
aL9494952L
aL14889591L
aL37847694L
aL143089585L
aL19352594L
aL225355823L
aL17728989L
aL504438979L
aL1150775952L
aL25057268L
aL17133847L
aL516567759L
aL1963127928L
aL16361404L
aL188859544L
aL94310316L
aL355607731L
aL1548833455L
aL1167507637L
aL940068104L
aL409299475L
aL376176874L
aL21183126L
aL231788030L
aL121143543L
aL1560017630L
aL30517463L
aL113370522L
aL352199024L
aL102075605L
aL709531998L
aL227235474L
aL21741456L
aL310369468L
aL78275774L
aL514322572L
aL831634207L
aL227795419L
aL397262550L
aL38648269L
aL877520341L
aL359957394L
aL227858230L
aL420905683L
aL184642765L
aL1254327068L
aL37796762L
aL40331739L
aL15134843L
aL1726706858L
aL208080068L
aL175400497L
aL1978230498L
aL44480467L
aL73834380L
aL874309717L
aL397289543L
aL1020679170L
aL18631955L
aL102823396L
aL87770546L
aL23164976L
aL251803859L
aL287894523L
aL120725967L
aL127878439L
aL19682999L
aL1307445464L
aL20803424L
aL24560153L
aL217149023L
aL952316660L
aL16016318L
aL2189396529L
aL75765234L
aL8273852L
aL374400371L
aL1084009964L
aL244174683L
aL15298591L
aL13393722L
aL133240013L
aL81151325L
aL152443795L
aL142107020L
aL1384921430L
aL402686301L
aL20682901L
aL217538268L
aL288765610L
aL186426571L
aL943917692L
aL25300709L
aL372579092L
aL21196668L
aL29007427L
aL1260314317L
aL77548711L
aL222888320L
aL2373440127L
aL326526397L
aL85605044L
aL823777147L
aL538308816L
aL210498984L
aL21303640L
aL108996220L
aL31223156L
aL66992995L
aL17017455L
aL271848878L
aL134970086L
aL21604599L
aL111069853L
aL65714240L
aL239149964L
aL216003940L
aL390135106L
aL30361270L
aL17139307L
aL796770168L
aL49796654L
aL118077551L
aL180849476L
aL236634264L
aL185518030L
aL160853884L
aL14731736L
aL18961057L
aL19032034L
aL126713861L
aL53451774L
aL273160612L
aL77784610L
aL43084080L
aL92332171L
aL8177942L
aL595634148L
aL386007608L
aL18462351L
aL261421908L
aL1222995265L
aL369559097L
aL99955762L
aL802418676L
aL293429732L
aL208470813L
aL348942437L
aL243701171L
aL385646035L
aL99793612L
aL173385172L
aL84325777L
aL54028848L
aL386851497L
aL31326951L
aL271348267L
aL930000410L
aL2351942580L
aL1409350016L
aL240287118L
aL559359061L
aL29458550L
aL20988653L
aL366094940L
aL1233945792L
aL537010057L
aL2189323466L
aL435881763L
aL2931L
aL17535722L
aL38747955L
aL238751406L
aL14938006L
aL345485004L
aL71709073L
aL300256297L
aL17326485L
aL362670159L
aL45563668L
aL176734484L
aL370145883L
aL1660681958L
aL388330045L
aL34896443L
aL1259764956L
aL461480091L
aL19545199L
aL90040190L
aL24254459L
aL106481878L
aL163630303L
aL22408232L
aL17352715L
aL1094226109L
aL256073978L
aL52711698L
aL41559846L
aL115156125L
aL51150910L
aL62018640L
aL17209989L
aL74152060L
aL118027896L
aL904225159L
aL233870577L
aL28182644L
aL163388941L
aL397550173L
aL394793577L
aL257593339L
aL46487219L
aL205899271L
aL217853217L
aL75345991L
aL493369078L
aL94622250L
aL367960937L
aL101553454L
aL20768755L
aL26570214L
aL311735715L
aL425372595L
aL300423615L
aL1488046716L
aL298677512L
aL264234639L
aL96979159L
aL207663117L
aL58804703L
aL84289450L
aL120412800L
aL2329403593L
aL2272179643L
aL141181753L
aL87091534L
aL325120382L
aL88097026L
aL22215835L
aL420990967L
aL64533875L
aL391472683L
aL282495155L
aL22778970L
aL19562043L
aL1215076848L
aL1600331611L
aL273823376L
aL807116352L
aL20914207L
aL1734631L
aL1093050859L
aL544634976L
aL47445818L
aL17467036L
aL50154139L
aL210013361L
aL156024829L
aL42869356L
aL21679976L
aL302742578L
aL90006553L
aL23765491L
aL40338917L
aL51515958L
aL286250546L
aL43772798L
aL215292728L
aL232625747L
aL2312006793L
aL114935417L
aL157452667L
aL1166383453L
aL139670926L
aL1511747294L
aL1356246246L
aL17600218L
aL225121469L
aL94986540L
aL21321891L
aL19291696L
aL187553785L
aL181981064L
aL418652903L
aL239610794L
aL37726680L
aL389639596L
aL110211773L
aL104609648L
aL819201696L
aL356811542L
aL260786169L
aL24155997L
aL32380240L
aL186035227L
aL16491561L
aL215434602L
aL41356806L
aL105568374L
aL119481793L
aL126810359L
aL20276223L
aL1657697472L
aL329879195L
aL259402586L
aL29096223L
aL72821721L
aL1241075976L
aL216684369L
aL227657998L
aL32676754L
aL111374801L
aL3771051L
aL143194130L
aL184348823L
aL354950676L
aL393550440L
aL16351801L
aL154818348L
aL302788682L
aL807212924L
aL1691051088L
aL1222816207L
aL706012238L
aL14168328L
aL324201427L
aL330562125L
aL75908944L
aL393556961L
aL267943944L
aL24626224L
aL304492226L
aL1725986306L
aL557612591L
aL43127569L
aL34055171L
aL487652617L
aL274239029L
aL235719870L
aL253760797L
aL388459433L
aL202287320L
aL410154930L
aL528566068L
aL552226277L
aL89835614L
aL1080955946L
aL100679610L
aL48941982L
aL119063640L
aL351861961L
aL323954310L
aL199008540L
aL228723612L
aL410476846L
aL73155522L
aL186899860L
aL16309908L
aL186239534L
aL930214783L
aL516051584L
aL234883715L
aL445441453L
aL179892236L
aL12492L
aL259188771L
aL155017092L
aL25702021L
aL453232243L
aL290165296L
aL27599757L
aL402715314L
aL314055863L
aL93719320L
aL20182117L
aL115279707L
aL24487865L
aL82456408L
aL3291181L
aL31199550L
aL22873699L
aL716984766L
aL1896036318L
aL18768822L
aL145241846L
aL135123608L
aL82322101L
aL1046029615L
aL32862964L
aL403360633L
aL133875887L
aL256022949L
aL498225994L
aL2329164948L
aL233413653L
aL42475024L
aL413810057L
aL872366022L
aL343116975L
aL40269373L
aL2310505943L
aL20718889L
aL1122746527L
aL38883821L
aL908684923L
aL1955926309L
aL47134125L
aL35748053L
aL814190815L
aL197872815L
aL68821246L
aL22548655L
aL1734316651L
aL233707489L
aL186385522L
aL354848687L
aL261379166L
aL1607890452L
aL3128751L
aL33836835L
aL1108615832L
aL24002442L
aL1441053422L
aL139809362L
aL534170600L
aL235312466L
aL462848241L
aL914462706L
aL1845352825L
aL1231536488L
aL597760477L
aL842369059L
aL137511626L
aL187410356L
aL2265746397L
aL310544159L
aL771171872L
aL260291255L
aL80920517L
aL292594413L
aL186573129L
aL13177812L
aL205027713L
aL77752912L
aL22126297L
aL22161092L
aL507943741L
aL401536821L
aL389128602L
aL1502181L
aL32503255L
aL745069051L
aL22632094L
aL636612621L
aL21032320L
aL111654565L
aL325231553L
aL187954337L
aL488716721L
aL26514374L
aL1255443439L
aL72933504L
aL20907302L
aL22468776L
aL2226434682L
aL65975477L
aL416279868L
aL295355064L
aL2364910923L
aL372135354L
aL1049592266L
aL41801831L
aL289499322L
aL21855844L
aL41639629L
aL1935199969L
aL94777705L
aL52505026L
aL37010284L
aL2186632579L
aL43718657L
aL1346890116L
aL36635401L
aL1304668958L
aL273551460L
aL228841898L
aL1078915338L
aL289460718L
aL324954305L
aL421354395L
aL1185353556L
aL239135593L
aL214387036L
aL56373405L
aL1775503501L
aL2180814638L
aL11888192L
aL387809678L
aL311432096L
aL278181692L
aL2173969752L
aL37064147L
aL124275540L
aL107372976L
aL38875199L
aL46788664L
aL545396149L
aL956824500L
aL1426948484L
aL163472366L
aL62819440L
aL225054551L
aL30216415L
aL307827012L
aL1630138386L
aL123002905L
aL2192528122L
aL1638830515L
aL416227329L
aL733327842L
aL109406252L
aL19167893L
aL147509786L
aL129937872L
aL472387077L
aL231955533L
aL430189013L
aL242878265L
aL225441716L
aL29685102L
aL337904271L
aL451552277L
aL38400240L
aL173243678L
aL238620706L
aL51852169L
aL284553680L
aL142229407L
aL396043309L
aL346768112L
aL1679094308L
aL119438694L
aL1543722684L
aL161367611L
aL1528831584L
aL26963852L
aL114799541L
aL120119400L
aL197039810L
aL1316851154L
aL457855756L
aL43767125L
aL106474692L
aL21289468L
aL323656000L
aL215928626L
aL2301545950L
aL392260591L
aL45120553L
aL407877156L
aL133715519L
aL1280806459L
aL24556665L
aL197205268L
aL7327302L
aL274237651L
aL195408857L
aL103896343L
aL341470060L
aL567496387L
aL928572175L
aL1339996356L
aL372393973L
aL41889772L
aL2384215971L
aL307553809L
aL16778743L
aL1139951862L
aL15358075L
aL29956136L
aL1556547223L
aL43985478L
aL39509987L
aL390813820L
aL185120407L
aL398407018L
aL397420911L
aL1026887904L
aL257610129L
aL2301119792L
aL182318958L
aL33882655L
aL320986168L
aL205281388L
aL328257881L
aL1789221L
aL1416216319L
aL209000426L
aL51733611L
aL452325804L
aL243820271L
aL53316393L
aL371908434L
aL743439416L
aL193332266L
aL1521362042L
aL23829356L
aL565538212L
aL9630132L
aL2388247618L
aL2155465406L
aL100560851L
aL14486103L
aL23828510L
aL80989357L
aL239828818L
aL312583632L
aL43322740L
aL267066906L
aL22192754L
aL252546856L
aL40338066L
aL277063268L
aL2168873126L
aL12824392L
aL2233858414L
aL23415727L
aL80931778L
aL233926277L
aL262255459L
aL495441023L
aL397472335L
aL156568093L
aL120839116L
aL579399127L
aL13176882L
aL1538506934L
aL277531468L
aL2250434320L
aL316110349L
aL1567988689L
aL15217216L
aL30454671L
aL19024840L
aL21695613L
aL1006928953L
aL15612560L
aL234832996L
aL136216823L
aL221374628L
aL77710399L
aL173598374L
aL185240299L
aL38475585L
aL134167228L
aL211253657L
aL401270533L
aL19158935L
aL56351397L
aL29676103L
aL42260795L
aL13266092L
aL233265664L
aL292901034L
aL18734403L
aL2259373956L
aL813558648L
aL347820950L
aL27146510L
aL562973268L
aL603621827L
aL185777699L
aL2304315033L
aL100166799L
aL270734095L
aL23993862L
aL1524421806L
aL1697447934L
aL361128029L
aL2221998289L
aL28880137L
aL62222124L
aL19988054L
aL19908547L
aL19087381L
aL23411695L
aL14301370L
aL2850321L
aL215699573L
aL252518774L
aL190400939L
aL423469093L
aL80517258L
aL29473238L
aL2274396974L
aL8958332L
aL89719880L
aL199693601L
aL784926984L
aL14651857L
aL2212522328L
aL594544882L
aL41399733L
aL536621099L
aL1497597194L
aL267400248L
aL16794521L
aL29949369L
aL5931792L
aL115760030L
aL496836519L
aL154070949L
aL2358805276L
aL35288963L
aL1141062194L
aL194127290L
aL311119691L
aL2351935035L
aL109004628L
aL276095478L
aL2358855761L
aL27857475L
aL409952421L
aL81730881L
aL310744750L
aL121113719L
aL2341040326L
aL1597983865L
aL54646400L
aL46192329L
aL14397634L
aL204456006L
aL18994610L
aL151893582L
aL853845366L
aL211671651L
aL2150147210L
aL103069018L
aL2241415938L
aL59532511L
aL394824849L
aL403561901L
aL16288700L
aL334015980L
aL62107639L
aL353301662L
aL15217179L
aL17292106L
aL147255116L
aL70775459L
aL22128055L
aL232889282L
aL1736671L
aL41670850L
aL40889945L
aL239808671L
aL238535008L
aL20568257L
aL918605281L
aL123238361L
aL214922482L
aL100974795L
aL26280144L
aL1348361L
aL356909698L
aL1062027500L
aL97270616L
aL269828555L
aL14605663L
aL2250492931L
aL383925801L
aL224301195L
aL2227860071L
aL215472612L
aL50843039L
aL766346180L
aL46169745L
aL460082639L
aL34913582L
aL109705720L
aL1560379903L
aL447305871L
aL49565686L
aL14907886L
aL27014189L
aL214619274L
aL25546617L
aL46171378L
aL218839062L
aL5844962L
aL17026456L
aL100792229L
aL173515875L
aL241007933L
aL228598116L
aL895466196L
aL585415949L
aL212049636L
aL200440392L
aL1095302450L
aL402524025L
aL461559624L
aL14350255L
aL318663907L
aL81624582L
aL228458620L
aL89276202L
aL96516122L
aL140356989L
aL30438680L
aL36171580L
aL479870336L
aL58264572L
aL919422606L
aL44160647L
aL109234065L
aL521564568L
aL608406294L
aL280415695L
aL21562988L
aL579365099L
aL96737133L
aL576954197L
aL40651175L
aL72811418L
aL194177249L
aL48799422L
aL48803907L
aL986243816L
aL100112608L
aL243710850L
aL409489852L
aL162839469L
aL82338546L
aL226420161L
aL200949973L
aL1280985930L
aL28895674L
aL19046572L
aL217464028L
aL153556330L
aL1727603436L
aL533210791L
aL233208233L
aL226557045L
aL104477864L
aL271515024L
aL226543904L
aL22042891L
aL272087500L
aL14581225L
aL95025783L
aL266752329L
aL64262699L
aL1317161515L
aL14199399L
aL2217578699L
aL22080086L
aL38651541L
aL2194515939L
aL378034728L
aL380005263L
aL282158836L
aL95465625L
aL68431703L
aL328998687L
aL26636898L
aL120212220L
aL2264149464L
aL1359331448L
aL1264487023L
aL48136114L
aL36780095L
aL310492144L
aL19646022L
aL998231132L
aL636927377L
aL137850919L
aL64155886L
aL2330831914L
aL636441014L
aL819589538L
aL15831093L
aL400773524L
aL364305266L
aL49969992L
aL816203L
aL21054818L
aL891475195L
aL34879537L
aL15033251L
aL16449094L
aL64756996L
aL93978445L
aL14743211L
aL949719480L
aL289408282L
aL117827001L
aL64054486L
aL952101480L
aL155227206L
aL135452514L
aL228438682L
aL238561820L
aL26314849L
aL1022355854L
aL1956512352L
aL21421864L
aL16831775L
aL705458965L
aL147541804L
aL115774182L
aL297514393L
aL45341001L
aL20767279L
aL175416300L
aL2180480524L
aL88781203L
aL844246872L
aL82115959L
aL345289733L
aL400702685L
aL98431496L
aL417913579L
aL320412124L
aL623123791L
aL364467654L
aL211806668L
aL324622546L
aL1836275857L
aL1469992477L
aL431562530L
aL102408695L
aL14381509L
aL312772928L
aL207704281L
aL1534779193L
aL41144912L
aL14889583L
aL40215107L
aL23355239L
aL157983222L
aL2170602232L
aL450826840L
aL379769677L
aL22902388L
aL934592264L
aL1356685610L
aL321336565L
aL26995984L
aL332431781L
aL27267477L
aL64777942L
aL199383429L
aL413094281L
aL506433259L
aL1427681576L
aL210125822L
aL46178884L
aL1126052250L
aL426795373L
aL1109839963L
aL120913937L
aL59097973L
aL104222348L
aL476432886L
aL324774543L
aL262189055L
aL176195768L
aL84869465L
aL2243779636L
aL595861208L
aL9979672L
aL12488452L
aL151514446L
aL292849901L
aL437951158L
aL9578762L
aL193002685L
aL151614834L
aL92245748L
aL83694801L
aL27884329L
aL92925347L
aL45608673L
aL29458461L
aL921202934L
aL225341328L
aL34637702L
aL817723279L
aL135216318L
aL1074969828L
aL7399382L
aL14379546L
aL113075872L
aL241504106L
aL326146344L
aL254908405L
aL6850722L
aL199364560L
aL251057871L
aL251964069L
aL27625244L
aL20994895L
aL1076501784L
aL379963419L
aL85348002L
aL779272987L
aL203266644L
aL257378703L
aL316991568L
aL610126442L
aL350289714L
aL1428489151L
aL2282259548L
aL372445553L
aL63335468L
aL146858582L
aL547533873L
aL23188172L
aL286854766L
aL201668225L
aL34873420L
aL192593893L
aL269631955L
aL57762432L
aL101253571L
aL94785021L
aL202790131L
aL107391398L
aL11328822L
aL521L
aL28422394L
aL83402532L
aL110737958L
aL18162762L
aL301642118L
aL483159210L
aL344617291L
aL22988346L
aL135966514L
aL220714794L
aL14301369L
aL71889449L
aL16275273L
aL152911526L
aL29940800L
aL288952181L
aL214947534L
aL167714491L
aL73906576L
aL1667603760L
aL222604223L
aL394895927L
aL1018280774L
aL106848917L
aL273438033L
aL166610285L
aL2281934378L
aL24689998L
aL20799208L
aL293922925L
aL307775011L
aL12084922L
aL36049477L
aL749491669L
aL1195066333L
aL27399119L
aL14097459L
aL2344521L
aL218593182L
aL1605791L
aL905705671L
aL22073594L
aL115395532L
aL278574136L
aL44867192L
aL19103793L
aL215315970L
aL64704305L
aL16613123L
aL234677838L
aL323407425L
aL105267293L
aL258592467L
aL175820859L
aL2363969070L
aL13771912L
aL1861759621L
aL87211997L
aL257929799L
aL240794375L
aL287333219L
aL355476945L
aL21484624L
aL105874216L
aL293731938L
aL105853277L
aL157983952L
aL222847575L
aL181518909L
aL507820471L
aL8252602L
aL123983343L
aL25844637L
aL92536630L
aL20588361L
aL16688284L
aL84831076L
aL557230947L
aL360078312L
aL92061808L
aL48711360L
aL303792855L
aL40002953L
aL2353001745L
aL167955495L
aL194697715L
aL21097585L
aL222922270L
aL16823249L
aL52416667L
aL16614600L
aL426782678L
aL333097019L
aL123083144L
aL19907830L
aL13100882L
aL64256029L
aL28807512L
aL186475772L
aL41783123L
aL1346296405L
aL133617769L
aL304321604L
aL153426204L
aL374486948L
aL1487766685L
aL16705477L
aL231173135L
aL605410814L
aL258100586L
aL56355503L
aL126631202L
aL767248L
aL203988459L
aL1239832754L
aL85524467L
aL1318914824L
aL2240248677L
aL81836365L
aL386164962L
aL539879289L
aL411378109L
aL104564911L
aL161184588L
aL356713925L
aL22020425L
aL45991150L
aL25494221L
aL22805549L
aL220385695L
aL487815888L
aL115769235L
aL191456237L
aL1013L
aL138689359L
aL2364025250L
aL316367156L
aL44137038L
aL10389092L
aL339726146L
aL107095752L
aL46191883L
aL321655291L
aL6578592L
aL892984946L
aL122028978L
aL269966525L
aL21306567L
aL22240230L
aL24214753L
aL570625271L
aL2360651103L
aL701252095L
aL49018557L
aL40236265L
aL76715612L
aL239348123L
aL320732541L
aL202996997L
aL22612329L
aL273435902L
aL112657127L
aL335385854L
aL46886306L
aL210408099L
aL974140292L
aL14214348L
aL156982685L
aL32512813L
aL81473201L
aL55858813L
aL621952894L
aL326424495L
aL152027267L
aL1696481851L
aL459121720L
aL134891862L
aL70676791L
aL263287722L
aL149424348L
aL111881307L
aL22608468L
aL866633384L
aL755249658L
aL146523398L
aL1736154745L
aL144606803L
aL301591079L
aL787881206L
aL2368920982L
aL434338091L
aL307791873L
aL126416625L
aL337827523L
aL124211663L
aL121667053L
aL831546456L
aL68106503L
aL224385507L
aL123371067L
aL53724353L
aL94092794L
aL259327194L
a.