(lp0
L49504256L
aL16875521L
aL748003340L
aL5120021L
aL43001177L
aL204824L
aL860192L
aL25296931L
aL341065768L
aL45522985L
aL14442542L
aL230481978L
aL12648516L
aL413450309L
aL11558983L
aL51609674L
aL268460114L
aL53444695L
aL178872414L
aL238059621L
aL381567083L
aL344173L
aL40389309L
aL257933428L
aL15258986L
aL26116241L
aL542218947L
aL1843349L
aL9912480L
aL290604400L
aL15827117L
aL261464243L
aL290807989L
aL38324937L
aL1002512572L
aL240525501L
aL51470537L
aL22839498L
aL13107408L
aL361095203L
aL182165717L
aL253157601L
aL250149585L
aL2982121L
aL37667050L
aL14426356L
aL18579715L
aL46563588L
aL1103003914L
aL391274767L
aL1154900242L
aL29024534L
aL16187672L
aL758448410L
aL217669917L
aL174014752L
aL910655781L
aL278667558L
aL11770589L
aL308748592L
aL13050163L
aL390927753L
aL229572927L
aL7536961L
aL37601602L
aL14442820L
aL10486085L
aL184992072L
aL4743499L
aL17809741L
aL31072591L
aL21135696L
aL143706851L
aL54821208L
aL10264921L
aL526827871L
aL54157669L
aL324264299L
aL375005549L
aL443842933L
aL263881078L
aL497007851L
aL7315838L
aL432742786L
aL490176899L
aL333570437L
aL384844166L
aL273154443L
aL653353358L
aL214933903L
aL469197201L
aL282845586L
aL332071321L
aL22730138L
aL30319009L
aL185131427L
aL375923116L
aL2474418L
aL217899448L
aL31031738L
aL10478011L
aL234037322L
aL284328386L
aL52961737L
aL542564820L
aL1393110L
aL221782488L
aL331080153L
aL670409178L
aL1034330588L
aL54051301L
aL244113900L
aL350371922L
aL286728687L
aL47088112L
aL501563889L
aL39895540L
aL339632630L
aL769503316L
aL243007996L
aL313475581L
aL1753601L
aL29204995L
aL499720714L
aL805380619L
aL1025991184L
aL296436241L
aL524640787L
aL5800470L
aL11772439L
aL3211812L
aL2343463L
aL13648431L
aL507888176L
aL1126900276L
aL332448310L
aL204907064L
aL213564L
aL326410821L
aL363405899L
aL205390L
aL439698979L
aL1614422L
aL212320861L
aL213680229L
aL175333984L
aL584565345L
aL676668004L
aL405070444L
aL8036992L
aL25617027L
aL266576516L
aL229982856L
aL538215053L
aL373277328L
aL9732770L
aL53734171L
aL647845L
aL277004971L
aL21168814L
aL5464755L
aL206348980L
aL1843901L
aL11641534L
aL209085120L
aL48382660L
aL5653192L
aL23388873L
aL9282265L
aL10544591L
aL471016156L
aL46514909L
aL371360485L
aL356467439L
aL720773875L
aL3482360L
aL17244933L
aL527844105L
aL241427212L
aL30827282L
aL641499929L
aL1084736302L
aL15876918L
aL229204792L
aL339239753L
aL11322186L
aL625025890L
aL17531751L
aL217326440L
aL1112359785L
aL47399795L
aL325092212L
aL2753398L
aL39175032L
aL29868925L
aL50013054L
aL10437507L
aL11658117L
aL24609671L
aL52421517L
aL13329300L
aL254080494L
aL266757023L
aL425485219L
aL13771684L
aL261211047L
aL629130152L
aL55649194L
aL486818735L
aL4539313L
aL253903796L
aL1093790L
aL49218490L
aL6112188L
aL262579136L
aL229958596L
aL1006437322L
aL469607379L
aL2556885L
aL278562297L
aL2565089L
aL213033957L
aL5006312L
aL556270577L
aL273662965L
aL56116217L
aL29328383L
aL46023691L
aL18195468L
aL312173582L
aL292135954L
aL276177944L
aL348406809L
aL202523677L
aL177234978L
aL15399771L
aL316957734L
aL19366957L
aL2507824L
aL54477873L
aL145114162L
aL192341047L
aL335193144L
aL8700985L
aL24904765L
aL26206389L
aL503514185L
aL420840522L
aL375391308L
aL47137872L
aL180487251L
aL5129311L
aL566370L
aL803943L
aL225404013L
aL255795389L
aL952337522L
aL2524277L
aL183796854L
aL34243703L
aL248729413L
aL5178519L
aL356983968L
aL176514212L
aL720413869L
aL4162734L
aL115887L
aL1760851L
aL579724468L
aL984384693L
aL835786L
aL787647L
aL5383362L
aL349578439L
aL17958090L
aL253682892L
aL664781L
aL1080266957L
aL320537810L
aL307889699L
aL26674391L
aL1131737L
aL182388707L
aL515007717L
aL564870012L
aL286393578L
aL132335L
aL338534611L
aL1134732533L
aL212215030L
aL41420030L
aL244000001L
aL11560196L
aL145073415L
aL232580360L
aL53658889L
aL197633291L
aL196543767L
aL286735237L
aL214476065L
aL1049298210L
aL400844068L
aL7316779L
aL933446956L
aL621905197L
aL302990640L
aL176596273L
aL327738677L
aL286123329L
aL21931343L
aL26453330L
aL546751827L
aL4171097L
aL348480869L
aL198714729L
aL11568493L
aL402384240L
aL964470131L
aL232551998L
aL75126L
aL583230844L
aL11915187L
aL420734336L
aL906315159L
aL5817759L
aL207463842L
aL37602727L
aL553731506L
aL197133757L
aL530908607L
aL304530880L
aL10921410L
aL14640582L
aL190891463L
aL352593353L
aL356025803L
aL178521551L
aL16893410L
aL177923559L
aL621651432L
aL528139753L
aL228222443L
aL17679854L
aL804791794L
aL236267000L
aL10561017L
aL18613754L
aL356795899L
aL675395654L
aL268944893L
aL215442946L
aL239789571L
aL201369092L
aL14894604L
aL594126353L
aL203589139L
aL417908246L
aL124440L
aL815261216L
aL218007075L
aL342296103L
aL232072746L
aL48752173L
aL197658172L
aL4073023L
aL288970338L
aL12954554L
aL5523062L
aL26543741L
aL204031619L
aL258737801L
aL210331281L
aL440174227L
aL2623128L
aL974849689L
aL195290785L
aL1098072349L
aL199599794L
aL987121331L
aL30549685L
aL229844667L
aL627607228L
aL234497727L
aL181872325L
aL40773321L
aL247817930L
aL178611922L
aL679225048L
aL2336473L
aL20268762L
aL38594269L
aL1409317L
aL363194082L
aL19113700L
aL177407718L
aL350430953L
aL231756905L
aL11724549L
aL16353030L
aL45614860L
aL330647311L
aL293685014L
aL1054852891L
aL560744228L
aL4425522L
aL25121076L
aL1850L
aL14419771L
aL474875709L
aL293480256L
aL366495553L
aL355673934L
aL343140188L
aL19261277L
aL306538129L
aL23250809L
aL275374399L
aL19089280L
aL591087491L
aL223029129L
aL304498328L
aL20072340L
aL173799065L
aL25012120L
aL226145774L
aL291891102L
aL9766821L
aL2336684L
aL43669153L
aL1124968396L
aL8456148L
aL8718294L
aL39944527L
aL17680355L
aL279398377L
aL311502826L
aL27068406L
aL204974077L
aL200468481L
aL1124509698L
aL38815749L
aL456501255L
aL917448718L
aL202049551L
aL46188561L
aL4040724L
aL36104213L
aL8284184L
aL21424154L
aL15075361L
aL584017954L
aL352208931L
aL33966117L
aL268003370L
aL10250289L
aL1452087L
aL529614904L
aL401393723L
aL32458819L
aL10676294L
aL52709451L
aL23087180L
aL24152141L
aL10578001L
aL189810775L
aL15059033L
aL8939615L
aL48220256L
aL416581732L
aL8906862L
aL181667955L
aL20129917L
aL15779967L
aL452970628L
aL3737736L
aL177703054L
aL18622611L
aL30804116L
aL1096542362L
aL243689628L
aL225339551L
aL48859297L
aL1009847L
aL24602809L
aL50882747L
aL308570304L
aL212420803L
aL207112389L
aL327292620L
aL11610319L
aL17074384L
aL490211538L
aL6416597L
aL29264095L
aL899918053L
aL301844711L
aL19622125L
aL28762494L
aL222554361L
aL173607166L
aL23628031L
aL715012L
aL198953236L
aL230181143L
aL376744216L
aL536848667L
aL22849827L
aL35973414L
aL16189746L
aL280717624L
aL202107194L
aL845351229L
aL334203200L
aL306702657L
aL329845814L
aL832833863L
aL264046920L
aL275097931L
aL4188496L
aL236595538L
aL223570262L
aL295659864L
aL241658203L
aL266668380L
aL1004128616L
aL317426026L
aL251185515L
aL42092913L
aL206320019L
aL305482103L
aL306923902L
aL218655103L
aL473794948L
aL415951240L
aL26012053L
aL45957529L
aL40053144L
aL191474080L
aL50866602L
aL32696751L
aL538462640L
aL202484148L
aL327215552L
aL246753745L
aL1159449057L
aL228010470L
aL294138473L
aL44485715L
aL14879220L
aL20949497L
aL5630459L
aL6197674L
aL215763460L
aL257837576L
aL679938578L
aL25020947L
aL20679192L
aL11790874L
aL235056218L
aL193841697L
aL48196130L
aL30730787L
aL526887L
aL317336105L
aL5556779L
aL417827380L
aL1411645L
aL224070211L
aL574401094L
aL764487L
aL274754128L
aL264497745L
aL33114709L
aL242412644L
aL1020676698L
aL266584506L
aL278358634L
aL4287084L
aL52832883L
aL207104632L
aL562522745L
aL303901306L
aL181791358L
aL11479681L
aL146090631L
aL316557967L
aL403253906L
aL211495571L
aL830950036L
aL292301462L
aL26307224L
aL495323802L
aL611347105L
aL270109351L
aL363653800L
aL16067243L
aL243919632L
aL24070834L
aL242526899L
aL254405301L
aL24914614L
aL208857789L
aL9702082L
aL1029614278L
aL338733769L
aL288090827L
aL196885626L
aL5925603L
aL267201253L
aL1076325096L
aL12266217L
aL14227239L
aL26020588L
aL181471996L
aL30452482L
aL388147249L
aL988097286L
aL310586119L
aL5040906L
aL3173131L
aL268188802L
aL182815504L
aL1944337L
aL319580946L
aL4131605L
aL12274457L
aL296274715L
aL329309317L
aL146090785L
aL7334692L
aL303074093L
aL42634032L
aL55438130L
aL512551734L
aL30870329L
aL191720251L
aL3836739L
aL52554566L
aL20212567L
aL213764955L
aL19778396L
aL2239331L
aL28494696L
aL487885673L
aL12217198L
aL14781299L
aL1100660L
aL174451580L
aL227404673L
aL248261512L
aL290171785L
aL29830029L
aL347578863L
aL215501724L
aL1051553L
aL462171049L
aL313060273L
aL26119092L
aL5860280L
aL10398650L
aL27732926L
aL831769535L
aL655125441L
aL194816974L
aL346794959L
aL145787859L
aL40635350L
aL28617690L
aL9153505L
aL38243298L
aL246107107L
aL36039652L
aL3432956L
aL1436653L
aL273697780L
aL309652470L
aL246705143L
aL181406712L
aL15739900L
aL461751346L
aL36908037L
aL373738502L
aL856809985L
aL36658349L
aL306301973L
aL201870359L
aL248679455L
aL16657442L
aL175475755L
aL8924205L
aL387361843L
aL236579894L
aL41348153L
aL27405379L
aL9817156L
aL29674568L
aL226389065L
aL211209296L
aL321954127L
aL401222739L
aL187378775L
aL29346906L
aL40954973L
aL25218148L
aL278801512L
aL145696615L
aL3812475L
aL20532349L
aL519408771L
aL245211670L
aL194399374L
aL289205392L
aL253078680L
aL553192612L
aL36891813L
aL10579110L
aL23301287L
aL273403048L
aL195861703L
aL192998578L
aL1134824633L
aL261901505L
aL31018182L
aL21589192L
aL4623561L
aL214060239L
aL33500372L
aL55323876L
aL962473196L
aL434392302L
aL270773489L
aL16755955L
aL500002038L
aL7597309L
aL929024L
aL332721409L
aL12291330L
aL646925571L
aL245116168L
aL224693514L
aL52399373L
aL284699918L
aL514321681L
aL29003028L
aL226460207L
aL264129821L
aL143879461L
aL362706823L
aL497290546L
aL174361908L
aL253136194L
aL17919302L
aL225492194L
aL51948881L
aL211799378L
aL269815132L
aL335736158L
aL3337568L
aL25988449L
aL233639270L
aL36398993L
aL5131628L
aL428969335L
aL194719099L
aL226954627L
aL314772871L
aL197782945L
aL191901099L
aL19639740L
aL328404414L
aL9260479L
aL1013239232L
aL29543877L
aL231804359L
aL384232912L
aL190729681L
aL221687250L
aL22949337L
aL180121054L
aL216698337L
aL36236772L
aL7171577L
aL1601027L
aL336874754L
aL235064852L
aL11096665L
aL796028446L
aL234475042L
aL34377252L
aL348696108L
aL211357229L
aL238521902L
aL38391344L
aL644918837L
aL222187064L
aL2453061L
aL1111567950L
aL34090579L
aL32624221L
aL509955679L
aL281431648L
aL462876260L
aL12750438L
aL279113321L
aL226127479L
aL425709177L
aL5598842L
aL217321097L
aL14659210L
aL177745550L
aL14913169L
aL181948051L
aL644054298L
aL239382175L
aL491155105L
aL176516771L
aL19353255L
aL342773417L
aL2862762L
aL159405L
aL31387316L
aL224673054L
aL21409462L
aL1038309321L
aL624783039L
aL4075206L
aL625503947L
aL35511587L
aL61143L
aL987895759L
aL402394845L
aL11005663L
aL1076962L
aL241406587L
aL192556772L
aL351760104L
aL3354349L
aL210218737L
aL263527721L
aL189853434L
aL235663102L
aL223076992L
aL3794902L
aL6893320L
aL811085581L
aL4108049L
aL367300372L
aL189206298L
aL2150175L
aL15896356L
aL15896358L
aL222162729L
aL479563563L
aL19115820L
aL146018101L
aL3632950L
aL21704509L
aL244469566L
aL47050562L
aL1666885L
aL3338056L
aL211660627L
aL185126743L
aL289607516L
aL1232734L
aL180744036L
aL334835564L
aL419417971L
aL14911465L
aL37513598L
aL219131781L
aL25341831L
aL1083917017L
aL314732432L
aL11489172L
aL257232790L
aL348229533L
aL259420066L
aL233942342L
aL493391784L
aL48213930L
aL360173487L
aL24968520L
aL38612915L
aL51318711L
aL436129730L
aL11785976L
aL209247565L
aL35614673L
aL12054492L
aL41324516L
aL3191462L
aL29265898L
aL174804977L
aL265383926L
aL809177086L
aL1691652L
aL202919941L
aL2740237L
aL343281679L
aL181751826L
aL305098780L
aL15233055L
aL299040L
aL274509860L
aL179007525L
aL293908521L
aL288780331L
aL182775854L
aL1043099698L
aL34631006L
aL35250868L
aL177926202L
aL296939582L
aL14839881L
aL183169103L
aL296784568L
aL289091668L
aL445493334L
aL176609295L
aL9162847L
aL195580002L
aL221655144L
aL34025579L
aL18894959L
aL497152112L
aL391393400L
aL1077373L
aL392237185L
aL181244034L
aL10555527L
aL5132424L
aL15233162L
aL55718028L
aL8747032L
aL302436500L
aL223432855L
aL204378270L
aL1601698L
aL186445995L
aL15545032L
aL2732212L
aL254193845L
aL499577017L
aL246837446L
aL12964045L
aL177582286L
aL299913426L
aL33960149L
aL18133206L
aL43946202L
aL269308123L
aL215691486L
aL684256L
aL483098529L
aL3415421L
aL27463921L
aL144855286L
aL262525185L
aL197112075L
aL190288146L
aL183676291L
aL443650327L
aL290877720L
aL1133359386L
aL652628251L
aL1008611615L
aL610611489L
aL5640483L
aL179728679L
aL229920893L
aL3961136L
aL195948852L
aL10563897L
aL20853052L
aL594239L
aL6697282L
aL709538117L
aL205582663L
aL189763917L
aL315101518L
aL9163089L
aL12448085L
aL23269719L
aL254079320L
aL20689248L
aL212108742L
aL274485615L
aL19165567L
aL223990144L
aL288133506L
aL187232643L
aL35377540L
aL17117574L
aL857108873L
aL186732938L
aL445608332L
aL47092109L
aL821965201L
aL2609555L
aL44241315L
aL17233990L
aL1106211239L
aL29118890L
aL10260916L
aL187167157L
aL26497471L
aL42455494L
aL358047139L
aL39580120L
aL143561177L
aL439013853L
aL258896350L
aL14586344L
aL70121L
aL20533738L
aL7888205L
aL201822722L
aL472822291L
aL21131797L
aL50852375L
aL270045722L
aL904647203L
aL323138084L
aL13906470L
aL8245808L
aL194712127L
aL1112724032L
aL263909959L
aL1929800L
aL48017994L
aL242889294L
aL260452949L
aL526551140L
aL4182630L
aL23655016L
aL8744380L
aL8360559L
aL257643121L
aL349155954L
aL260378046L
aL144208504L
aL200659578L
aL717173371L
aL28750476L
aL916198033L
aL513184422L
aL1096487594L
aL848557L
aL485249720L
aL307548872L
aL308630219L
aL290151014L
aL19296980L
aL494203608L
aL4125402L
aL197317342L
aL276394719L
aL42095331L
aL143815402L
aL145830639L
aL298816247L
aL188101376L
aL963341L
aL54178575L
aL51581716L
aL319263514L
aL30896934L
aL119591L
aL490763051L
aL190534444L
aL208048941L
aL220098014L
aL208941889L
aL17044291L
aL5492193L
aL244544335L
aL332739408L
aL24908631L
aL185922401L
aL220506259L
aL188150644L
aL44741494L
aL331846530L
aL40833939L
aL40653716L
aL192689046L
aL10326936L
aL187462562L
aL8426403L
aL305992615L
aL267457448L
aL18494378L
aL699388851L
aL2142602L
aL46912450L
aL578081742L
aL6026192L
aL314725338L
aL450204642L
aL2216939L
aL4674545L
aL176411641L
aL1162204155L
aL301806886L
aL566014976L
aL4912137L
aL964064268L
aL353383439L
aL243947694L
aL270136342L
aL254596122L
aL241603618L
aL1112757290L
aL317420591L
aL14922825L
aL4929721L
aL214193250L
aL143733859L
aL160873L
aL3396717L
aL568906862L
aL348460144L
aL5346425L
aL196752511L
aL800593028L
aL9376913L
aL41047200L
aL7681187L
aL257176750L
aL6829236L
aL8287418L
aL200611006L
aL4674751L
aL204862664L
aL29806114L
aL42333393L
aL1119458L
aL16069859L
aL532968680L
aL399171112L
aL1157664908L
aL3618035L
aL342529276L
aL909833473L
aL20673794L
aL671053069L
aL198923539L
aL51344663L
aL1065268513L
aL211178787L
aL271111462L
aL218723624L
aL6972295L
aL184038700L
aL1013037L
aL644543795L
aL7238967L
aL6427966L
aL12653890L
aL29693266L
aL504198483L
aL50206038L
aL258938202L
aL11195741L
aL1106965858L
aL15185255L
aL7394666L
aL214451092L
aL16618880L
aL27104642L
aL33150344L
aL230643081L
aL1815948L
aL8910233L
aL27047322L
aL14505371L
aL212096414L
aL17159583L
aL447542699L
aL288011699L
aL2799029L
aL182425019L
aL396860014L
aL432772549L
aL17970631L
aL4767333L
aL367171029L
aL202716630L
aL13506011L
aL1143625180L
aL9000420L
aL19207656L
aL21447591L
aL240997869L
aL321910254L
aL49427951L
aL14054899L
aL368563701L
aL4920823L
aL355546616L
aL583071225L
aL39220737L
aL39466498L
aL259044867L
aL230331918L
aL284923408L
aL144307731L
aL23647770L
aL539285032L
aL8721962L
aL14005805L
aL792112L
aL51131315L
aL715421237L
aL289633850L
aL191518267L
aL682087996L
aL251164221L
aL9262654L
aL187332166L
aL2971216L
aL628242001L
aL206755417L
aL1332828L
aL27801183L
aL24704610L
aL767589L
aL653973095L
aL26850922L
aL285767278L
aL20166257L
aL15173908L
aL306624131L
aL291550854L
aL12612546L
aL12547737L
aL143718045L
aL25589407L
aL233502369L
aL40072870L
aL627652271L
aL195368624L
aL13997751L
aL289207995L
aL898561724L
aL218248895L
aL867407564L
aL1677009L
aL237328093L
aL1439464L
aL180287213L
aL215518298L
aL514488055L
aL9737976L
aL6199049L
aL33879818L
aL501151505L
aL9090836L
aL246699797L
aL180655896L
aL1668890L
aL184915742L
aL1134507807L
aL421754659L
aL40998695L
aL1128503081L
aL14956335L
aL38434609L
aL200726324L
aL238933823L
aL196056896L
aL3034358L
aL1111545669L
aL272357201L
aL215488339L
aL248919892L
aL204879702L
aL28129112L
aL239671135L
aL1151743844L
aL555226984L
aL841090024L
aL1048573814L
aL483047289L
aL5564418L
aL238032771L
aL8025991L
aL52131720L
aL901601165L
aL31111055L
aL15882135L
aL8796065L
aL226244514L
aL39212965L
aL281016235L
aL17799084L
aL257644463L
aL52959161L
aL189790142L
aL45463489L
aL414373826L
aL268982217L
aL1800143L
aL6158293L
aL230403775L
aL428980192L
aL3864545L
aL213882855L
aL3012590L
aL1079294L
aL314447874L
aL271022084L
aL253597701L
aL214947855L
aL49033L
aL27736085L
aL145741847L
aL10090520L
aL175011866L
aL177010717L
aL492083232L
aL12138535L
aL23877676L
aL384416094L
aL12638262L
aL24049721L
aL248158266L
aL12417086L
aL597309504L
aL27531334L
aL46610508L
aL300587087L
aL196543502L
aL998266969L
aL32151643L
aL7288934L
aL206772328L
aL248387693L
aL240973937L
aL104962171L
aL967243902L
aL462551169L
aL20224132L
aL338188422L
aL54646921L
aL219175056L
aL990918813L
aL271964321L
aL179706021L
aL305100974L
aL989665464L
aL628545721L
aL15169725L
aL246192321L
aL203315399L
aL318200021L
aL6068438L
aL2832614L
aL7657704L
aL214939887L
aL187603188L
aL366471550L
aL367663351L
aL9795833L
aL20953342L
aL338565382L
aL789149961L
aL216833751L
aL187373846L
aL479443224L
aL54081819L
aL251159600L
aL24901923L
aL44210470L
aL266975528L
aL2537769L
aL46962987L
aL3605554L
aL25505380L
aL995023154L
aL1102264631L
aL17758522L
aL144537994L
aL1587595L
aL642726214L
aL242473290L
aL262988855L
aL5462348L
aL217476834L
aL389355854L
aL21911890L
aL33601875L
aL177281365L
aL15800666L
aL473495901L
aL1046878L
aL375413093L
aL273807720L
aL36010347L
aL263046205L
aL1636726L
aL7059839L
aL296802698L
aL12315031L
aL8960396L
aL491919757L
aL518961555L
aL401815962L
aL261396891L
aL207280546L
aL23083427L
aL311392676L
aL497416614L
aL366614953L
aL462231987L
aL8870324L
aL609915977L
aL686522L
aL209017275L
aL522426813L
aL6711712L
aL5413314L
aL313672780L
aL550828490L
aL424507862L
aL327162330L
aL21944802L
aL359520740L
aL8190439L
aL51681775L
aL282696178L
aL266380371L
aL416248L
aL308451839L
aL344594950L
aL223468043L
aL189037076L
aL3938846L
aL546019871L
aL391887392L
aL214063661L
aL291084867L
aL41286220L
aL616834777L
aL1107474874L
aL217782879L
aL342276710L
aL431225454L
aL8591984L
aL179436148L
aL5731433L
aL23771769L
aL5782152L
aL469824622L
aL8731289L
aL1683226L
aL8615024L
aL408976042L
aL35584686L
aL968465076L
aL484817592L
aL47413948L
aL205150910L
aL189799106L
aL17775299L
aL239278788L
aL667941583L
aL390281937L
aL18987730L
aL229243603L
aL175700692L
aL49478364L
aL964795101L
aL11565791L
aL27114213L
aL943233766L
aL5921512L
aL398310129L
aL396294899L
aL813210356L
aL302078719L
aL50789121L
aL255802120L
aL794636076L
aL30972682L
aL206461711L
aL4758289L
aL6011667L
aL2759457L
aL173677358L
aL3316529L
aL306846514L
aL27220790L
aL196008763L
aL2579262L
aL719420225L
aL184744788L
aL232684376L
aL39164762L
aL36068187L
aL144964455L
aL793107315L
aL381016954L
aL5086076L
aL1121360773L
aL200080275L
aL398424982L
aL247626653L
aL177003422L
aL25197471L
aL23927718L
aL31071147L
aL2825135L
aL19389363L
aL44202939L
aL1129405L
aL310330528L
aL282205136L
aL814046161L
aL15727572L
aL928988118L
aL225360857L
aL221772790L
aL470850555L
aL220199932L
aL190290942L
aL401431552L
aL30784515L
aL12483599L
aL6151184L
aL23084053L
aL4906007L
aL29105183L
aL783088677L
aL12442666L
aL20241454L
aL16964657L
aL27221051L
aL2341948L
aL34249789L
aL28474432L
aL20324193L
aL176634953L
aL1091419214L
aL11394129L
aL611728473L
aL526498906L
aL211745883L
aL326748L
aL467704942L
aL670833775L
aL47996019L
aL510671994L
aL219012222L
aL425491586L
aL16342149L
aL289766538L
aL253172876L
aL1051106452L
aL304364693L
aL19799193L
aL55123098L
aL242244763L
aL2661532L
aL40721567L
aL25402530L
aL247536803L
aL41090212L
aL21609641L
aL708435117L
aL12896797L
aL210295984L
aL603962546L
aL4709557L
aL144596154L
aL258374175L
aL16702653L
aL183737543L
aL24558792L
aL18201818L
aL8469726L
aL6462688L
aL197819618L
aL192658661L
aL224304360L
aL25853161L
aL757849323L
aL656432365L
aL1046232307L
aL255130871L
aL633445637L
aL1155816711L
aL23772424L
aL358120724L
aL25705749L
aL10566938L
aL42106139L
aL413924636L
aL297729309L
aL4070686L
aL43982883L
aL453991715L
aL241999145L
aL845389110L
aL9706807L
aL22175035L
aL19479869L
aL188341569L
aL459701576L
aL510893385L
aL20798794L
aL22101325L
aL38616400L
aL43138390L
aL35401616L
aL177692002L
aL585882983L
aL6143341L
aL181116270L
aL176373109L
aL1005985146L
aL33586555L
aL476552573L
aL188390798L
aL187710863L
aL290315666L
aL12257859L
aL271646103L
aL30703000L
aL213615151L
aL224740591L
aL42958237L
aL218717599L
aL622583203L
aL236633515L
aL1087389110L
aL5891317L
aL9781153L
aL542105032L
aL35691982L
aL6421967L
aL192380374L
aL29195742L
aL178044385L
aL964779491L
aL21939607L
aL54681072L
aL10743522L
aL29613566L
aL39394819L
aL414825988L
aL876037L
aL994631596L
aL6430220L
aL16525914L
aL219455007L
aL262274600L
aL350625323L
aL7371932L
aL908782309L
aL2620982L
aL253541946L
aL297524797L
aL189881922L
aL3931716L
aL280477255L
aL4292174L
aL1117402381L
aL43015760L
aL47832659L
aL549420629L
aL279092825L
aL29351514L
aL145055327L
aL264216165L
aL1038638698L
aL355843695L
aL252092021L
aL188431993L
aL51928700L
aL281788031L
aL1044247567L
aL31973000L
aL376462L
aL29261461L
aL3237098L
aL2104992L
aL294411940L
aL32472748L
aL143556271L
aL237289140L
aL1109270215L
aL16735944L
aL348316962L
aL317513424L
aL370581204L
aL337460949L
aL26708601L
aL4939481L
aL230866655L
aL4177632L
aL534368941L
aL175316706L
aL349052645L
aL427982568L
aL37961461L
aL17448703L
aL30113538L
aL395009798L
aL306192137L
aL216268563L
aL1736482L
aL175472422L
aL962494247L
aL288390952L
aL13532977L
aL23412537L
aL186588986L
aL30990141L
aL301711167L
aL403406657L
aL190103365L
aL42540872L
aL39370575L
aL449863509L
aL40918870L
aL36470618L
aL35741532L
aL403808095L
aL193716064L
aL307453793L
aL687982L
aL688013168L
aL329654149L
aL13451145L
aL2555787L
aL285073292L
aL262094741L
aL5799830L
aL29769623L
aL314908575L
aL42229665L
aL241606572L
aL260808629L
aL558817208L
aL267239355L
aL628948925L
aL201015230L
aL215325345L
aL229482441L
aL286947567L
aL26582993L
aL178552788L
aL539484121L
aL543399912L
aL47939568L
aL55377905L
aL271867890L
aL3260404L
aL277209078L
aL229916663L
a.