(lp0
L254696776L
aL7078658L
aL37408145L
aL306321L
aL462375931L
aL1024315651L
aL2524277L
aL183243322L
aL241184477L
aL323007979L
aL625150617L
aL662887534L
aL203404184L
aL3596088L
aL38804591L
aL7847207L
aL7885503L
aL246322484L
aL31682L
aL497416614L
aL257232790L
aL21715295L
aL198953236L
aL199740568L
aL1131755738L
aL34113402L
aL624314779L
aL5460672L
aL174446845L
aL1023621L
aL45974630L
aL12104148L
aL357491221L
aL1166632499L
aL1126715423L
aL39185976L
aL28762494L
aL1083998560L
aL28990621L
aL475177L
aL30661441L
aL25113127L
aL212709538L
aL23877676L
aL454621310L
aL276175831L
aL220098014L
aL225459302L
aL552320965L
aL1108946233L
aL973309433L
aL405943L
aL2404630L
aL277004971L
aL53983127L
aL361585155L
aL1154900242L
aL224413156L
aL206389228L
aL595053540L
aL303074093L
aL10028336L
aL176609031L
aL22745182L
aL2620982L
aL237866598L
aL38230547L
aL20249884L
aL12028419L
aL15891976L
aL143701142L
aL315858288L
aL40713272L
aL198620L
aL188431993L
aL420907245L
aL207395771L
aL2579262L
aL27699297L
aL581716641L
aL3119200L
aL410377019L
aL466250758L
aL274324564L
aL23446633L
aL520740205L
aL277287173L
aL298919849L
aL233437312L
aL229243603L
aL220487551L
aL178689938L
aL285739267L
aL1299464L
aL15462063L
aL248701268L
aL917448718L
aL5413314L
aL47908347L
aL304055204L
aL255787114L
aL845068L
aL49304104L
aL15059033L
aL262521800L
aL176456955L
aL11999317L
aL5459246L
aL825634378L
aL356235847L
aL20403666L
aL6639375L
aL17511732L
aL183661740L
aL23979450L
aL805710234L
aL3497335L
aL56102791L
aL290040527L
aL843617188L
aL51601295L
aL28866978L
aL2417836L
aL26477810L
aL284245046L
aL269422445L
aL242526899L
aL39982580L
aL176510835L
aL803462127L
aL655117086L
aL295719105L
aL340370758L
aL378260953L
aL44478359L
aL16187672L
aL415916302L
aL7217868L
aL296820825L
aL22009421L
aL195550419L
aL52456836L
aL3205097L
aL262358888L
aL23045256L
aL30735337L
aL182201807L
aL38664468L
aL803260L
aL312278942L
aL8226349L
aL54184675L
aL51581716L
aL364578L
aL219392049L
aL54569190L
aL209875618L
aL26462539L
aL12258321L
aL445229332L
aL497655369L
aL1232734L
aL199622231L
aL196034010L
aL10152010L
aL11467409L
aL430453143L
aL182897358L
aL146992L
aL7672058L
aL425709177L
aL19547286L
aL652628251L
aL262272167L
aL289693400L
aL243775866L
aL5180692L
aL1114053L
aL240678217L
aL520861818L
aL10259859L
aL447292307L
aL50585002L
aL273341800L
aL327576623L
aL250989598L
aL5012323L
aL237068986L
aL4473459L
aL216032498L
aL6897053L
aL1666885L
aL26003653L
aL418229569L
aL12381795L
aL1087458485L
aL26865232L
aL11785976L
aL341314314L
aL1037251341L
aL1067039172L
aL276033686L
aL184941586L
aL254025335L
aL18622329L
aL1127375562L
aL469667265L
aL127075L
aL1695485L
aL255594010L
aL208274487L
aL271942356L
aL251495674L
aL220739214L
aL34804298L
aL5124329L
aL38324038L
aL55918621L
aL44172611L
aL12612546L
aL49199489L
aL6645704L
aL17869696L
aL348406809L
aL317363174L
aL260990269L
aL262094741L
aL421912356L
aL727957339L
aL201873909L
aL917867739L
aL368724610L
aL5022645L
aL417114432L
aL19134886L
aL309937508L
aL176833215L
aL226864852L
aL5406692L
aL408164304L
aL193439707L
aL302486836L
aL7760587L
aL2453754L
aL803943L
aL6984999L
aL146090785L
aL33134489L
aL13158074L
aL526887L
aL688161L
aL227168900L
aL5808087L
aL193823L
aL283802696L
aL332148914L
aL3491830L
aL215051793L
aL30821102L
aL2963245L
aL252548052L
aL146122868L
aL54157669L
aL694687276L
aL209495024L
aL927835L
aL580293787L
aL253971719L
aL528052951L
aL104917910L
aL24557013L
aL262563286L
aL298532608L
aL199477762L
aL555483551L
aL2295469L
aL27625543L
aL227856818L
aL28837885L
aL30622055L
aL655629311L
aL921790606L
aL276027633L
aL610245062L
aL256164853L
aL1142039L
aL269481379L
aL245154049L
aL6185977L
aL712241438L
aL21608688L
aL293227053L
aL47924803L
aL8710618L
aL37015121L
aL8333511L
aL291525341L
aL322022737L
aL277244851L
aL173597227L
aL343825957L
aL194399374L
aL225115437L
aL18279324L
aL27405379L
aL199792060L
aL3602606L
aL543804676L
aL47262634L
aL361771270L
aL262596732L
aL34241804L
aL1663847L
aL40639188L
aL256183548L
aL552362678L
aL274103409L
aL1062979472L
aL45845867L
aL21417183L
aL50390284L
aL207698356L
aL1167041812L
aL2137030L
aL115945L
aL40735357L
aL238665315L
aL189696195L
aL276394719L
aL42919319L
aL1038309321L
aL233066560L
aL144530706L
aL349578439L
aL26925638L
aL21058641L
aL180224779L
aL199413575L
aL183477168L
aL1078029220L
aL430771227L
aL247249370L
aL548640081L
aL301844711L
aL33542525L
aL7009839L
aL17801974L
aL6427966L
aL278667558L
aL186132695L
aL710148343L
aL845994991L
aL242135660L
aL200994025L
aL20166257L
aL276307460L
aL188629180L
aL331117L
aL431225454L
aL145843270L
aL241427212L
aL227345528L
aL232651777L
aL14581022L
aL35334516L
aL13762954L
aL3766363L
aL269373466L
aL493353571L
aL44164820L
aL346692578L
aL5213762L
aL747221L
aL203254818L
aL198502252L
aL1039152672L
aL47784752L
aL7714882L
aL210316026L
aL13751964L
aL33488726L
aL1706519L
aL192801560L
aL183010325L
aL21905575L
aL772201261L
aL401431552L
aL221725671L
aL239634536L
aL251185515L
aL323576962L
aL186301790L
aL199053562L
aL106983L
aL461476702L
aL2299223L
aL34622745L
aL23065956L
aL184191988L
aL24381294L
aL39580120L
aL16338716L
aL4803370L
aL518465L
aL13399475L
aL273155574L
aL14557960L
aL190517804L
aL245805962L
aL35329591L
aL211623819L
aL25008844L
aL20908029L
aL5498359L
aL33910744L
aL450119882L
aL48088054L
aL30843842L
aL25383645L
aL40750956L
aL14919068L
aL248886281L
aL3153684L
aL296676141L
aL19831258L
aL12971734L
aL33008732L
aL598250567L
aL31076230L
aL605590728L
aL17294L
aL144361656L
aL24311417L
aL2537123L
aL179466395L
aL28716559L
aL487719699L
aL36104213L
aL1860612L
aL350891290L
aL319903540L
aL8505054L
aL204717260L
aL258117398L
aL221871040L
aL2732925L
aL315713143L
aL55151424L
aL8954346L
aL262597810L
aL10490713L
aL24901923L
aL26307224L
aL199599794L
aL19766870L
aL23887297L
aL8503858L
aL359593400L
aL5708600L
aL194642527L
aL19802903L
aL194640627L
aL1084448947L
aL229448820L
aL3247358L
aL14944797L
aL49218490L
aL26728684L
aL184020497L
aL52925347L
aL9766821L
aL12965313L
aL32441546L
aL272973725L
aL173625619L
aL53227032L
aL21272586L
aL809177086L
aL208621989L
aL175482698L
aL17275460L
aL282198189L
aL11373156L
aL2617083L
aL1060405L
aL15800666L
aL23445936L
aL16009128L
aL516095591L
aL288844157L
aL224623020L
aL17928056L
aL17314647L
aL243756182L
aL12235138L
aL30772443L
aL520922242L
aL2690327L
aL41194490L
aL37741831L
aL290756741L
aL346576669L
aL231889030L
aL433119186L
aL496926312L
aL8322737L
aL223921816L
aL354079175L
aL3903290L
aL52961737L
aL664781L
aL42446935L
aL269744977L
aL400203L
aL584793941L
aL738486L
aL240498411L
aL344707223L
aL381331261L
aL272929367L
aL6416597L
aL784674475L
aL1094697463L
aL255776963L
aL234962211L
aL15607087L
aL12250645L
aL12545984L
aL246642135L
aL191254832L
aL486096821L
aL263917378L
aL145829897L
aL49885931L
aL4721142L
aL11388096L
aL341514366L
aL17664275L
aL364297982L
aL6559250L
aL5557366L
aL504173L
aL5055325L
aL231662672L
aL984259L
aL185921889L
aL4388266L
aL201277965L
aL408004218L
aL417959275L
aL308234328L
aL18511116L
aL1257987L
aL341623823L
aL24474124L
aL40281130L
aL204417117L
aL7213983L
aL44048989L
aL9388261L
aL29308497L
aL689649L
aL722277L
aL3167134L
aL18529312L
aL25116625L
aL8659420L
aL624118142L
aL431795532L
aL227870762L
aL253160946L
aL990313944L
aL234574546L
aL716006009L
aL21340114L
aL289014976L
aL324700986L
aL1094636L
aL483537956L
aL8747371L
aL33373248L
aL5165991L
aL1087945438L
aL633492415L
aL308748592L
aL5460168L
aL282770258L
aL961966772L
aL783720831L
aL27616499L
aL51670891L
aL16875521L
aL21342777L
aL189027890L
aL275375365L
aL367909190L
aL30903344L
aL287924920L
aL558712272L
aL10201640L
aL539704600L
aL22133351L
aL278397860L
aL1040250653L
aL208924892L
aL393377232L
aL6402454L
aL185122822L
aL325577098L
aL716659317L
aL277005888L
aL624783039L
aL343956765L
aL260808629L
aL196735401L
aL1130229785L
aL223569061L
aL9744842L
aL364896913L
aL201848679L
aL5055950L
aL14718712L
aL15602979L
aL20189568L
aL22014050L
aL481969970L
aL233650201L
aL467903661L
aL36170645L
aL198507923L
aL179415983L
aL763584377L
aL14734555L
aL212723581L
aL7562198L
aL17268143L
aL353940404L
aL313993909L
aL29383858L
aL204419117L
aL2313620L
aL248004772L
aL346794959L
aL1126900276L
aL49730332L
aL40773321L
aL9693812L
aL50852375L
aL1850L
aL1482039L
aL12186366L
aL179332987L
aL31066350L
aL255119536L
aL5741149L
aL247856526L
aL174972087L
aL209360500L
aL7121215L
aL18977220L
aL9737976L
aL21911890L
aL45944985L
aL356983968L
aL1025192325L
aL26692542L
aL376108608L
aL675395654L
aL795862L
aL11027972L
aL43944931L
aL10743522L
aL611593869L
aL292051284L
aL282124328L
aL195738084L
aL810985785L
aL8700985L
aL230643081L
aL18322318L
aL308852055L
aL311392676L
aL194933358L
aL1671455L
aL5920973L
aL513162509L
aL2231878L
aL362109245L
aL542218947L
aL545063501L
aL42462583L
aL274808559L
aL15796376L
aL5383362L
aL270860600L
aL11796465L
aL30277008L
aL617855738L
aL19540816L
aL424691485L
aL301599272L
aL10621928L
aL20917682L
aL308750782L
aL21559818L
aL934725L
aL231674864L
aL263490916L
aL1478532L
aL26924260L
aL218681045L
aL22289983L
aL35685247L
aL26042927L
aL252088304L
aL16867511L
aL288757245L
aL50914612L
aL16574140L
aL20194236L
aL20537136L
aL25636953L
aL43669816L
aL25647303L
aL50465881L
aL9449606L
aL9678227L
aL330317749L
aL274504366L
aL185529891L
aL22605610L
aL145865340L
aL248638773L
aL144902692L
aL19479869L
aL315075048L
aL202464890L
aL675148516L
aL460456974L
aL264046920L
aL2677442L
aL183617837L
aL399333578L
aL509955679L
aL28113730L
aL15194039L
aL37961461L
aL23424368L
aL470863250L
aL230307399L
aL7888205L
aL804248L
aL420824091L
aL217070L
aL191024145L
aL1062637074L
aL44082472L
aL174604893L
aL823961721L
aL34009588L
aL38388L
aL4073023L
aL502601988L
aL30277757L
aL294802781L
aL2862762L
aL466974L
aL414405125L
aL1805509L
aL6697282L
aL209478190L
aL249701603L
aL251150901L
aL233225773L
aL17126653L
aL7194742L
aL233070574L
aL45928311L
aL491839725L
aL236694489L
aL7629685L
aL270008026L
aL1106310838L
aL55645681L
aL240728581L
aL427216675L
aL30472583L
aL18991725L
aL33896346L
aL5634180L
aL231031843L
aL343996179L
aL28926003L
aL1215949L
aL364125668L
aL43669153L
aL289199763L
aL144964455L
aL1097693434L
aL8694445L
aL582393840L
aL4493555L
aL177926202L
aL19182830L
aL75126L
aL186867693L
aL7833176L
aL205281875L
aL39123062L
aL862141L
aL5889051L
aL9830282L
aL367086595L
aL10876812L
aL225835250L
aL55123098L
aL23667939L
aL616175626L
aL4210851L
aL263928662L
aL11810595L
aL29104093L
aL310336617L
aL15683088L
aL266039813L
aL374549948L
aL993845149L
aL226095780L
aL297358795L
aL2403232L
aL243373983L
aL434392302L
aL8597409L
aL27994637L
aL33966117L
aL17899156L
aL7279325L
aL122786L
aL1621289L
aL621651432L
aL88619L
aL424824833L
aL761119112L
aL624446L
aL204568772L
aL6158239L
aL39269158L
aL16287047L
aL16180938L
aL223029129L
aL11106191L
aL6184431L
aL221248877L
aL368809911L
aL254117325L
aL1165277705L
aL1106965858L
aL186028767L
aL292772998L
aL299900802L
aL53031501L
aL32011045L
aL23667473L
aL260076L
aL16071965L
aL5453545L
aL256737036L
aL213764955L
aL40244077L
aL191720251L
aL44477678L
aL255138320L
aL273764470L
aL204348694L
aL328569050L
aL185622073L
aL293751828L
aL28477659L
aL37487208L
aL189853434L
aL24098913L
aL16658699L
aL4666709L
aL255130871L
aL40998695L
aL188079851L
aL829339632L
aL206686326L
aL23754254L
aL201822722L
aL243919632L
aL518753925L
aL364028894L
aL15399771L
aL10005780L
aL1010249458L
aL226457849L
aL216355275L
aL309258393L
aL14713492L
aL2548200L
aL183777369L
aL22200398L
aL39949392L
aL39697391L
aL22030345L
aL215462787L
aL17558051L
aL21818035L
aL1837814L
aL224463524L
aL18453553L
aL52108687L
aL9000420L
aL50198798L
aL266047882L
aL10025683L
aL1069149L
aL16067243L
aL29458048L
aL1528525L
aL364522302L
aL225815504L
aL5587510L
aL9912480L
aL804295478L
aL49162292L
aL10354831L
aL32789448L
aL265454447L
aL368764377L
aL180487251L
aL261211047L
aL926014431L
aL51279026L
aL5303360L
aL11610319L
aL39220737L
aL24754976L
aL15629606L
aL6301206L
aL2035721L
aL7681187L
aL926954993L
aL202399571L
aL174104830L
aL3030058L
aL27702860L
aL7183939L
aL27381622L
aL340122651L
aL9694906L
aL14221121L
aL268479968L
aL746650388L
aL10435277L
aL3637115L
aL224291486L
aL273934630L
aL265020310L
aL53975011L
aL242742853L
aL2264277L
aL11126285L
aL3930621L
aL21722334L
aL9258713L
aL40918870L
aL425485219L
aL48766279L
aL42135858L
aL4988358L
aL198775162L
aL18916597L
aL863093L
aL283265160L
aL10162783L
aL180657404L
aL13934685L
aL10645239L
aL307135L
aL392218408L
aL185005012L
aL503744987L
aL1080672834L
aL26509831L
aL5132424L
aL183641053L
aL14563560L
aL220838865L
aL39185503L
aL373123452L
aL6421967L
aL208410691L
aL320021956L
aL428082784L
aL52495226L
aL193467417L
aL1604926L
aL1065921767L
aL299918088L
aL21038056L
aL180985556L
aL51187410L
aL18574000L
aL254699592L
aL9801113L
aL26886259L
aL50790685L
aL2142602L
aL420387745L
aL253935825L
aL321038347L
aL182476221L
aL215955283L
aL14759923L
aL25617027L
aL30103011L
aL8939006L
aL239740046L
aL28552539L
aL3872568L
aL188373415L
aL1452846L
aL414892668L
aL25604124L
aL23233636L
aL263889867L
aL22064330L
aL26149275L
aL309401422L
aL517965270L
aL7901116L
aL22821976L
aL286961856L
aL23796985L
aL477830496L
aL3337568L
aL12773444L
aL245426L
aL2753398L
aL182388707L
aL528747L
aL20794781L
aL255768667L
aL371125309L
aL320085304L
aL192998578L
aL2881394L
aL212678481L
aL24821567L
aL15993027L
aL19482767L
aL1064959723L
aL31364117L
aL304815077L
aL32002745L
aL8446989L
aL4920823L
aL180812921L
aL4030947L
aL30730787L
aL207773252L
aL498951455L
aL18069308L
aL4063645L
aL289589432L
aL3387658L
aL639942609L
aL281567187L
aL6994010L
aL1240005L
aL19366934L
aL44217L
aL13931707L
aL329713177L
aL145114162L
aL348394539L
aL255591941L
aL928487975L
aL35411648L
aL33247721L
aL419565850L
aL235806297L
aL195671666L
aL5695635L
aL2237374L
aL275594297L
aL377137159L
aL1140749619L
aL12653890L
aL232455887L
aL395800761L
aL2341948L
aL23388873L
aL479313436L
aL349846620L
aL34267212L
aL128933L
aL541367309L
aL431588745L
aL38461237L
aL17074384L
aL1120598175L
aL19221107L
aL7597309L
aL49280735L
aL909342L
aL231373057L
aL19115820L
aL13906470L
aL429140389L
aL251985164L
aL42229665L
aL260452949L
aL192636822L
aL245721870L
aL855627200L
aL1000928602L
aL290171785L
aL1104924317L
aL5682385L
aL850130119L
aL246705143L
aL395498724L
aL384416094L
aL3560883L
aL32121132L
aL47423230L
aL509614776L
aL505005526L
aL2661532L
aL481891483L
aL19113700L
aL286651260L
aL31831565L
aL46588903L
aL9090836L
aL55219590L
aL230886193L
aL235393920L
aL5292933L
aL3665026L
aL3004403L
aL655002141L
aL132335L
aL144904497L
aL22294252L
aL420323542L
aL374825607L
aL32428241L
aL285611153L
aL184928646L
aL11832082L
aL737718176L
aL235391167L
aL752995479L
aL23370294L
aL13029189L
aL4133499L
aL11359350L
aL368616747L
aL15972831L
aL423982836L
aL226484933L
aL1241290L
aL256949559L
aL542031882L
aL713304367L
aL13079663L
aL23084053L
aL188881802L
aL17439147L
aL361328426L
aL289723919L
aL296784568L
aL262988855L
aL166473L
aL241094776L
aL576708721L
aL348296484L
aL9778648L
aL345333109L
aL295158478L
aL21131797L
aL48220256L
aL10247886L
aL269444351L
aL47050562L
aL29975914L
aL804096L
aL466528209L
aL211126963L
aL32609783L
aL34631006L
aL429260817L
aL264216165L
aL242084885L
aL177867328L
aL36068187L
aL13650878L
aL12597025L
aL21038088L
aL2456557L
aL255279446L
aL373360912L
aL8661551L
aL42612507L
aL215727429L
aL56062583L
aL382735632L
aL177290332L
aL724114861L
aL38289462L
aL202716630L
aL212136546L
aL37048657L
aL2435890L
aL39164762L
aL15709778L
aL292477705L
aL5008081L
aL12832314L
aL190312245L
aL44097838L
aL1104127593L
aL7059702L
aL29268711L
aL937356031L
aL4125402L
aL295095858L
aL616834777L
aL185704811L
aL178247867L
aL16391947L
aL188504445L
aL313945367L
aL202758513L
aL219869222L
aL297729309L
aL19207656L
aL31531066L
aL184926911L
aL3432956L
aL1124968396L
aL217470304L
aL1107500485L
aL53750399L
aL499720714L
aL183237036L
aL15364357L
aL332721409L
aL12447461L
aL4449781L
aL299880723L
aL269638818L
aL445856963L
aL10141399L
aL57749L
aL320372645L
aL181116270L
aL193841697L
aL11057058L
aL2033723L
aL122013L
aL9972725L
aL145696615L
aL52421517L
aL29852884L
aL15233162L
aL8085082L
aL22455426L
aL8767429L
aL427982568L
aL30452213L
aL782689074L
aL11546762L
aL221753273L
aL830691804L
aL52043867L
aL767589L
aL191498416L
aL258312767L
aL1096487594L
aL16618880L
aL5021783L
aL28728588L
aL2152626L
aL252896487L
aL20129917L
aL348041L
aL21302469L
aL373277328L
aL226379868L
aL628948925L
aL473680404L
aL871512L
aL144050692L
aL26430784L
aL307501859L
aL54825112L
aL8287418L
aL363405899L
aL299848118L
aL486053882L
aL558361656L
aL8870324L
aL89250L
aL52835503L
aL321954127L
aL10258837L
aL10655389L
aL9702082L
aL52178752L
aL1084736302L
aL889774L
aL328090339L
aL182734449L
aL3777530L
aL33345710L
aL3904988L
aL352482733L
aL230984073L
aL832732025L
aL3330006L
aL3552127L
aL1120897498L
aL296939582L
aL1124084302L
aL568915942L
aL39458132L
aL1119191424L
aL917162995L
aL7452170L
aL22181507L
aL1132911851L
aL5644178L
aL376370189L
aL535891469L
aL628817127L
aL242772301L
aL360956927L
aL185619154L
aL337927647L
aL13411429L
aL597362705L
aL277209078L
aL26489600L
aL51177776L
aL324698913L
aL1115836903L
aL16702653L
aL928988118L
aL216268563L
aL698505L
aL518935278L
aL44609672L
aL16299937L
aL179673502L
aL4628103L
aL316962386L
aL216533140L
aL248099491L
aL535357444L
aL959040466L
aL258764331L
aL5119824L
aL292810682L
aL565038882L
aL420382965L
aL804791794L
aL1120908938L
aL363337943L
aL2732212L
aL1539903L
aL1118662079L
aL18238676L
aL1006495091L
aL15930260L
aL258374175L
aL32151643L
aL192118029L
aL1156091098L
aL4115046L
aL37586022L
aL695057278L
aL50895470L
aL2343442L
aL291084867L
aL626852338L
aL306192137L
aL1143073267L
aL266002814L
aL329842399L
aL264198L
aL34249789L
aL52055780L
aL230131684L
aL54478559L
aL14291685L
aL394996644L
aL483493399L
aL593656284L
aL6972295L
aL4792390L
aL1548817L
aL143809024L
aL386937067L
aL205983607L
aL5459644L
aL17044291L
aL545880973L
aL195368624L
aL32090409L
aL295693051L
aL31018182L
aL493391784L
aL183169103L
aL1133444763L
aL586493777L
aL28750476L
aL29511798L
aL266574301L
aL225837890L
aL22175035L
aL323510000L
aL199597893L
aL9491386L
aL21714551L
aL50206038L
aL579724468L
aL173618682L
aL647515826L
aL43515811L
aL625150202L
aL649515154L
aL22730600L
aL144876753L
aL17638847L
aL5653192L
aL34925095L
aL6753058L
aL1162867805L
aL188102455L
aL548985679L
aL180557966L
aL1072880145L
aL43988755L
aL1179582L
aL25738190L
aL11568493L
aL1152032877L
aL187794784L
aL8407697L
aL221655144L
aL393091535L
aL441727420L
aL288522481L
aL364051124L
aL256016906L
aL276901366L
aL9175891L
aL6994792L
aL345834660L
aL1049162959L
aL4167971L
aL54063854L
aL55206866L
aL256034338L
aL20916026L
aL206408622L
aL211104468L
aL607628703L
aL782414L
aL22101325L
aL39175032L
aL399702946L
aL882432L
aL53323812L
aL41965317L
aL29118890L
aL23759046L
aL278328509L
aL300632460L
aL49954247L
aL3311506L
aL489112310L
aL28824162L
aL175316706L
aL43551352L
aL577588539L
aL326282566L
aL17551852L
aL394896501L
aL399316004L
aL421754659L
aL24562758L
aL291550854L
aL235834023L
aL529591084L
aL36222450L
aL6962638L
aL36272823L
aL143556271L
aL327292620L
aL382573110L
aL32761806L
aL658738055L
aL191027022L
aL417234249L
aL251337612L
aL348774722L
aL848817L
aL246409658L
aL199212499L
aL6952439L
aL972845L
aL191208057L
aL1005267744L
aL14508566L
aL636038855L
aL327760933L
aL6364454L
aL1053492714L
aL241999145L
aL629482418L
aL1107474874L
aL198083257L
aL328261826L
aL44016309L
aL296116256L
aL312064740L
aL433455032L
aL247594698L
aL9239610L
aL50783035L
aL51948881L
aL38290129L
aL183640948L
aL8514510L
aL24595567L
aL579412L
aL415881109L
aL579177322L
aL184149584L
aL5883931L
aL1065411L
aL286035628L
aL289512801L
aL240997869L
aL977004639L
aL33560229L
aL232645498L
aL514799211L
aL347400067L
aL17640837L
aL522300906L
aL8956418L
aL1939968L
aL756916838L
aL50885920L
aL14829806L
aL29457931L
aL23881835L
aL194871587L
aL178680636L
aL278420543L
aL450558310L
aL41514835L
aL3554612L
aL1124509698L
aL551424484L
aL35487686L
aL8957823L
aL196752511L
aL330411402L
aL455548640L
aL15327447L
aL267938442L
aL20160151L
aL255366428L
aL211745883L
aL13560937L
aL225339551L
aL1153918428L
aL574349047L
aL1442125L
aL894225020L
aL544483787L
aL38334420L
aL30319009L
aL186054467L
aL2964923L
aL3208428L
aL584311739L
aL316557967L
aL17184700L
aL27416545L
aL416581732L
aL20686570L
aL216833751L
aL15239273L
aL1048820232L
aL215484118L
aL716591970L
aL175133665L
aL18870390L
aL232474964L
aL37602727L
aL1129163L
aL2637348L
aL232670563L
aL323777308L
aL331846530L
aL255216460L
aL546628796L
aL17236306L
aL438794507L
aL329899765L
aL240491312L
aL1131692393L
aL184285L
aL641387945L
aL290060771L
aL199346314L
aL46563588L
aL1912571L
aL5925603L
aL270863123L
aL243219037L
aL240097382L
aL20814663L
aL16248485L
aL145810193L
aL1426241L
aL375413093L
aL225360620L
aL218793816L
aL271647336L
aL528578L
aL238883283L
aL30608011L
aL17638644L
aL194638912L
aL16281982L
aL23227102L
aL7610363L
aL2790081L
aL6622653L
aL2623128L
aL1519073L
aL33102376L
aL266022039L
aL653946595L
aL180054872L
aL177842959L
aL283659053L
aL3632950L
aL1028721413L
aL190913398L
aL5612298L
aL964779491L
aL13860806L
aL3946284L
aL1280764L
aL298791643L
aL366495553L
aL227744909L
aL1166447L
aL824795333L
aL250440272L
aL298027404L
aL3864545L
aL42958237L
aL21440827L
aL21958948L
aL1288056L
aL509056169L
aL303320390L
aL23055810L
aL237092395L
aL30924991L
aL371313126L
aL42504382L
aL848L
aL390281937L
aL536390125L
aL55141537L
aL337833710L
aL212096414L
aL474222839L
aL6732772L
aL202438724L
aL258740483L
aL96224L
aL375590320L
aL213115951L
aL1120555986L
aL304233013L
aL224751382L
aL1046957L
aL5040906L
aL8796196L
aL274394316L
aL7311842L
aL503885447L
aL996994668L
aL909310770L
aL10924600L
aL7647636L
aL314362367L
aL309287434L
aL228721755L
aL21944802L
aL267112842L
aL472270L
aL1540671L
aL43484L
aL15977738L
aL244841855L
aL890646L
aL259433481L
aL180700119L
aL216936672L
aL5381157L
aL8456148L
aL471398122L
aL6084733L
aL7363351L
aL6146423L
aL242112603L
aL229457803L
aL262579136L
aL1175798L
aL985932805L
aL205479413L
aL482321068L
aL191868028L
aL175045707L
aL310311022L
aL245492888L
aL23647770L
aL742068399L
aL344594950L
aL285760L
aL8018923L
aL1155860325L
aL19261277L
aL174179599L
aL313475581L
aL178184487L
aL207525392L
aL174014752L
aL189367233L
aL973043458L
aL30642450L
aL19115711L
aL901601165L
aL1072326961L
aL312641037L
aL186433581L
aL4095295L
aL188160129L
aL284955454L
aL179728679L
aL395248392L
aL253561981L
aL1158440699L
aL484755896L
aL252705492L
aL274188947L
aL26128801L
aL536464277L
aL502252003L
aL307453793L
aL1129983493L
aL228633905L
aL144855286L
aL1046232307L
aL8795125L
aL237328093L
aL231821340L
aL228655914L
aL16353030L
aL302540094L
aL485249720L
aL4968279L
aL42822726L
aL3869482L
aL53802544L
aL178521551L
aL264259125L
aL988097286L
aL205962212L
aL305405597L
aL4901663L
aL238933823L
aL336894156L
aL55752561L
aL54142207L
aL16069859L
aL341901538L
aL289207995L
aL230029197L
aL304725795L
aL4287084L
aL18857088L
aL19389363L
aL290807989L
aL701654741L
aL319698853L
aL1677009L
aL25341831L
aL26801770L
aL189929930L
aL13122844L
aL968465076L
aL45587094L
aL30253818L
aL12557284L
aL187671307L
aL213507773L
aL177659821L
aL465982905L
aL989665464L
aL348919034L
aL177546757L
aL4745614L
aL1140204130L
aL6893320L
aL239823964L
aL431212043L
aL13036670L
aL6479307L
aL271646103L
aL181751826L
aL222676861L
aL3833030L
aL14513660L
aL2658334L
aL351361498L
aL8844688L
aL8469726L
aL36950041L
aL18898379L
aL6295289L
aL428190553L
aL202967788L
aL284923408L
aL197977321L
aL623964702L
aL20681047L
aL22679847L
aL2971216L
aL37572473L
aL308080190L
aL316471360L
aL453987986L
aL309991431L
aL201427367L
aL211501730L
aL146070153L
aL1352508L
aL16419231L
aL1098188035L
aL502327973L
aL1078982L
aL5193670L
aL502031844L
aL358505792L
aL8328196L
aL200659578L
aL30776742L
aL45957529L
aL434262766L
aL8023618L
aL50705726L
aL356795899L
aL8906862L
aL523535648L
aL143725946L
aL189037076L
aL11090618L
aL18973311L
aL23552946L
aL229258354L
aL4623561L
aL25109856L
aL211971853L
aL199272927L
aL182233272L
aL2356258L
aL27801183L
aL198581449L
aL8873648L
aL281320870L
aL19778396L
aL214569835L
aL1134507807L
aL216809756L
aL214487930L
aL32633853L
aL11279167L
aL19345338L
aL55227694L
aL10566938L
aL473382154L
aL1063046353L
aL239950438L
aL311869263L
aL230866655L
aL3961136L
aL252092021L
aL20268762L
aL19165567L
aL490628463L
aL194511247L
aL22798712L
aL145073415L
aL15307311L
aL25757198L
aL312269192L
aL23095L
aL35579265L
aL47905599L
aL28365681L
aL487578877L
aL548866941L
aL938049625L
aL353737845L
aL1140755478L
aL350371922L
aL53820273L
aL363967637L
aL35386166L
aL629130152L
aL3976735L
aL378551746L
aL304096202L
aL229219585L
aL289074186L
aL215501724L
aL357981244L
aL1149749L
aL41900629L
aL336145094L
aL216916918L
aL600964334L
aL194894189L
aL50019911L
aL271867648L
aL7288934L
aL239948607L
aL2996312L
aL13771684L
aL271792607L
aL264720805L
aL538215053L
aL349036247L
aL969277396L
aL796072705L
aL10544591L
aL365360426L
aL194324040L
aL491485674L
aL13344341L
aL196431937L
aL1111567950L
aL52709451L
aL839937873L
aL728737233L
aL4307594L
aL525224977L
aL311611506L
aL18355681L
aL194655344L
aL43285510L
aL433315338L
aL181046430L
aL187022834L
aL20537972L
aL288390952L
aL243689628L
aL144444683L
aL245346L
aL30328235L
aL24558792L
aL29105835L
aL248616889L
aL241603618L
aL761965L
aL228326495L
aL256526115L
aL176540753L
aL246655950L
aL14419771L
aL34307914L
aL41702313L
aL382619187L
aL6734599L
aL496860698L
aL406740205L
aL279640135L
aL307248085L
aL413168078L
aL1939960L
aL649705836L
aL238521902L
aL39370575L
aL40353432L
aL215556364L
aL180227579L
aL279398377L
aL207968115L
aL47973588L
aL41255976L
aL273403048L
aL9892053L
aL381295665L
aL34889837L
aL428980192L
aL13332954L
aL16598141L
aL33775L
aL402328324L
aL39944527L
aL1044225230L
aL1339303L
aL682087996L
aL368504401L
aL25464706L
aL1089084L
aL1109733152L
aL266926461L
aL17983171L
aL208603545L
aL269150371L
aL632772108L
aL210331281L
aL276712093L
aL39371647L
aL1112520497L
aL9324341L
aL11750462L
aL326433668L
aL11278499L
aL2964721L
aL240652607L
aL40892506L
aL10538793L
aL144899069L
aL286759079L
aL42080271L
aL777956834L
aL266668380L
aL45350004L
aL49427951L
aL4171097L
aL10121032L
aL8669213L
aL22455706L
aL668277963L
aL10640593L
aL42267224L
aL1037771961L
aL38412224L
aL1996612L
aL375434447L
aL504324366L
aL205568742L
aL361467653L
aL16621688L
aL293666220L
aL4801979L
aL1067394401L
aL248762334L
aL261396891L
aL532920421L
aL31073476L
aL203500219L
aL1119458L
aL32029659L
aL357273687L
aL201488252L
aL297441841L
aL990067382L
aL381567083L
aL336874754L
aL190288146L
aL871854L
aL175898466L
aL233639270L
aL22928183L
aL232072746L
aL53842028L
aL260378046L
aL286947567L
aL181871103L
aL386161L
aL539525388L
aL13344057L
aL49265916L
aL216453377L
aL1091381073L
aL846212L
aL752343053L
aL318913710L
aL7609865L
aL7501012L
aL265594564L
aL212457654L
aL634978446L
aL211357229L
aL181051552L
aL253021627L
aL28560249L
aL959133879L
aL504448808L
aL7712388L
aL13206218L
aL182058593L
aL286054836L
aL15221295L
aL200726324L
aL257082074L
aL15061779L
aL259782439L
aL256539793L
aL20072340L
aL22602769L
aL33150344L
aL22166756L
aL7698009L
aL355397015L
aL253088261L
aL611487848L
aL33146143L
aL14422845L
aL477438415L
aL51133081L
aL192620219L
aL269815132L
aL328993625L
aL254079320L
aL222663899L
aL656509719L
aL625503947L
aL369652622L
aL191673709L
aL3191462L
aL6342983L
aL25296931L
aL30703000L
aL295700666L
aL290771043L
aL16222092L
aL253136194L
aL218228302L
aL21277399L
aL48681480L
aL302078719L
aL372171642L
aL196804311L
aL257256715L
aL367162223L
aL347591453L
aL268336928L
aL423841006L
aL311289343L
aL1888699L
aL526498906L
aL352208931L
aL187328987L
aL1102126607L
aL542564820L
aL180860760L
aL1143625180L
aL174063550L
aL23786309L
aL4031603L
aL181052000L
aL255288198L
aL2952415L
aL36486352L
aL234289787L
aL44210470L
aL365664514L
aL497152112L
aL425764364L
aL31072494L
aL489149172L
aL799663453L
aL464899902L
aL667149934L
aL619820456L
aL299249823L
aL855211783L
aL609915977L
aL529980556L
aL186834000L
aL347440928L
aL198026369L
aL1360698L
aL243919430L
aL1548627L
aL221824425L
aL260124990L
aL717214541L
aL1008611615L
aL179385803L
aL7002416L
aL336753745L
aL233476185L
aL178611922L
aL514647681L
aL248729413L
aL603444749L
aL104820444L
aL622583203L
aL534536612L
aL412165231L
aL180075407L
aL10090520L
aL1041272877L
aL387271492L
aL368414155L
aL211809068L
aL359986681L
aL1933693L
aL207120206L
aL36451714L
aL175274498L
aL202911049L
aL254742483L
aL31378590L
aL1167165298L
aL200220653L
aL212610746L
aL305223401L
aL28696291L
aL14005805L
aL191914063L
aL176411641L
aL25988449L
aL455931793L
aL953491781L
aL18879765L
aL51227744L
aL8002256L
aL232417490L
aL189882044L
aL417908246L
aL189522828L
aL307374639L
aL13506011L
aL2453061L
aL483171481L
aL234334855L
aL197819618L
aL8697415L
aL495323802L
aL484959774L
aL208764514L
aL1929800L
aL191502668L
aL268667198L
aL318346011L
aL1129405L
aL332466468L
aL22064234L
aL16300117L
aL20031268L
aL186973673L
aL15045725L
aL243329704L
aL558520099L
aL448667960L
aL304924035L
aL214546534L
aL358120724L
aL24100174L
aL225004059L
aL185670167L
aL218947998L
aL1113314847L
aL329309317L
aL418282354L
aL299865582L
aL529614904L
aL218222287L
aL235738728L
aL283499056L
aL844309776L
aL197633291L
aL266421889L
aL222187064L
aL920651384L
aL260376327L
aL224963827L
aL30675652L
aL23301287L
aL251164221L
aL54681072L
aL298477428L
aL547051444L
aL830077963L
aL254222020L
aL272319715L
aL264186983L
aL1089655803L
aL239710108L
aL33980167L
aL52480807L
aL18721076L
aL1099397447L
aL26191773L
aL40879084L
aL179099692L
aL2304004L
aL795617616L
aL174817433L
aL218569893L
aL321139628L
aL307857006L
aL207545394L
aL9042070L
aL2167294L
aL280971883L
aL197914239L
aL539285032L
aL180729545L
aL294138473L
aL218437536L
aL518866838L
aL7371932L
aL221876613L
aL15890300L
aL54178575L
aL224070211L
aL38434609L
aL263031464L
aL53004897L
aL6955185L
aL187751970L
aL1077741416L
aL297956857L
aL198506204L
aL143865132L
aL234449682L
aL406598147L
aL218176494L
aL1249969L
aL1107118683L
aL207463842L
aL265893173L
aL306862645L
aL37111692L
aL193665212L
aL30460689L
aL445493334L
aL3647394L
aL216332791L
aL27047690L
aL198842942L
aL291813467L
aL1017093928L
aL9596382L
aL796028446L
aL378147868L
aL212108742L
aL10392014L
aL338416791L
aL250993344L
aL8939615L
aL453991715L
aL187127214L
aL316957734L
aL640779100L
aL173763848L
aL310060009L
aL209939003L
aL387357434L
aL305551L
aL796132752L
aL19813504L
aL6081903L
aL8865889L
aL798317915L
aL769503316L
aL211712213L
aL2537769L
aL3605554L
aL3541441L
aL506724242L
aL33500372L
aL321910254L
aL784133785L
aL259892L
aL493268228L
aL34090579L
aL1678184L
aL1112724032L
aL396554735L
aL334835564L
aL2834593L
aL48393900L
aL1787574L
aL288970338L
aL1080158273L
aL41437404L
aL12552652L
aL1179099L
aL229982856L
aL470829514L
aL232985030L
aL555479477L
aL648500L
aL349554904L
aL23083427L
aL30619157L
aL23916631L
aL1099409223L
aL14712194L
aL1808085L
aL272858706L
aL8025991L
aL372214156L
aL879799L
aL313330392L
aL715591L
aL296125371L
aL250894380L
aL360713051L
aL16341964L
aL1127514300L
aL144307731L
aL30916639L
aL51431887L
aL197201440L
aL40186482L
aL260583641L
aL13136259L
aL303901306L
aL229244581L
aL2651520L
aL29003028L
aL50710383L
aL32138321L
aL487161956L
aL310290919L
aL10216763L
aL2690580L
aL1053156869L
aL443842933L
aL48196130L
aL245675727L
aL402967997L
aL36926794L
aL201971729L
aL502317767L
aL1124282018L
aL144896349L
aL800593028L
aL249517381L
aL1106324347L
aL997932020L
aL144615093L
aL860192L
aL499538515L
aL877279319L
aL6686729L
aL254436506L
aL760657765L
aL500117351L
aL218523396L
aL218194371L
aL208492959L
aL583071225L
aL645318150L
aL780130463L
aL374041412L
aL174948767L
aL233309110L
aL710286164L
aL22004219L
aL314365446L
aL184073318L
aL342726357L
aL246256484L
aL474753033L
aL47353645L
aL236768889L
aL177357901L
aL43170059L
aL192628009L
aL27931433L
aL7781894L
aL237674980L
aL503646279L
aL236791410L
aL387297054L
aL1411645L
aL5947780L
aL264313360L
aL3694915L
aL213688867L
aL18894959L
aL1730705L
aL265374051L
aL4709557L
aL14587821L
aL253682892L
aL224949546L
aL22801538L
aL1128503081L
aL14979992L
aL236628875L
aL202105486L
aL18713662L
aL14185090L
aL204879702L
aL17046790L
aL313446446L
aL183701474L
aL143706851L
aL7939880L
aL302481602L
aL447655247L
aL564870012L
aL337022133L
aL176373109L
aL462551169L
aL20798794L
aL289682456L
aL187373846L
aL239977518L
aL17218139L
aL962529875L
aL1006437322L
aL16445094L
aL55985466L
aL263515647L
aL306065343L
aL515503415L
aL484915048L
aL281396819L
aL535047962L
aL276381501L
aL201507025L
aL215350155L
aL25744225L
aL625769115L
aL146090631L
aL246969235L
aL357893037L
aL20532349L
aL10573392L
aL146138974L
aL30990141L
aL308429526L
aL26031230L
aL223862006L
aL5921512L
aL196779015L
aL335253689L
aL462171049L
aL330737043L
aL376350742L
aL50789121L
aL245667630L
aL196851538L
aL368664604L
aL264904629L
aL247639804L
aL261901505L
aL29160102L
aL8901950L
aL988379L
aL1452087L
aL31400201L
aL228409956L
aL18981631L
aL359228247L
aL302359894L
aL530179454L
aL48103259L
aL341065768L
aL206885729L
aL319926788L
aL7873431L
aL32292748L
aL286817219L
aL12855005L
aL3414744L
aL9561908L
aL206869904L
aL19000837L
aL6032475L
aL397918238L
aL487775592L
aL251652739L
aL1112465586L
aL7297239L
aL297722906L
aL55323876L
aL15771628L
aL50305914L
aL771321L
aL21424154L
aL436446L
aL192347412L
aL9153505L
aL3617748L
aL8624352L
aL550791683L
aL1045986885L
aL993590125L
aL12610506L
aL38800190L
aL36191128L
aL15930988L
aL45278593L
aL791217929L
aL1072813552L
aL339590031L
aL209029135L
aL229574359L
aL211340769L
aL202228860L
aL203413182L
aL261708610L
aL37587999L
aL1083543220L
aL385352049L
aL257837576L
aL231410633L
aL227400820L
aL282366000L
aL5731433L
aL233747703L
aL223570262L
aL44391546L
aL14551332L
aL143724760L
aL12911732L
aL9607650L
aL467002359L
aL324131953L
aL305494208L
aL238001844L
aL1012260711L
aL24228536L
aL444473L
aL967243902L
aL9404122L
aL219882003L
aL4097213L
aL28434071L
aL263839934L
aL957406110L
aL234920747L
aL234485706L
aL2495171L
aL274366733L
aL1106368206L
aL290374191L
aL5652393L
aL235390246L
aL226466766L
aL27266984L
aL7493438L
aL39898311L
aL9045342L
aL25648206L
aL17029966L
aL576565061L
aL8651789L
aL337613246L
aL194741814L
aL19296980L
aL363653800L
aL145768506L
aL493231199L
aL187232643L
aL30898093L
aL43757812L
aL262337911L
aL475595158L
aL183641463L
aL202367000L
aL17166829L
aL29341181L
aL5218512L
aL339753303L
aL262357458L
aL1026409308L
aL692564931L
aL4030950L
aL996688375L
aL218206826L
aL187332166L
aL24240947L
aL343180514L
aL208104900L
aL215273522L
aL809566846L
aL180661417L
aL318898147L
aL13044945L
aL40258546L
aL9702386L
aL13069608L
aL35516654L
aL377025886L
aL40605697L
aL3431088L
aL1068503712L
aL255795389L
aL282923964L
aL254432626L
aL25402530L
aL591252840L
aL353030962L
aL1096542362L
aL248892920L
aL276257044L
aL32223960L
aL177326258L
aL182930445L
aL301651891L
aL18996927L
aL18613754L
aL15663501L
aL222162729L
aL14911465L
aL249141091L
aL3289501L
aL463291277L
aL325761342L
aL13997751L
aL866246690L
aL323985928L
aL1080266957L
aL6602521L
aL250149585L
aL1133778869L
aL215930788L
aL214939887L
aL441439200L
aL1606028L
aL145842565L
aL794636076L
aL611900510L
aL1112527185L
aL33950606L
aL332071321L
aL145787859L
aL2230725L
aL9331651L
aL376462L
aL4400585L
aL46609571L
aL202063180L
aL180238506L
aL801002699L
aL227332712L
aL274298245L
aL48277955L
aL22948465L
aL553101692L
aL2658782L
aL40566821L
aL436140359L
aL4182630L
aL26744092L
aL215249L
aL473617466L
aL14713483L
aL202061536L
aL605051369L
aL675432399L
aL28068391L
aL477987358L
aL228346098L
aL1048573814L
aL526551140L
aL196321457L
aL5395512L
aL12922239L
aL6815773L
aL27068406L
aL19681755L
aL230327907L
aL200712874L
aL15887390L
aL419283794L
aL235366268L
aL857096412L
aL345381087L
aL1145402986L
aL329654149L
aL183802916L
aL1103003914L
aL12241014L
aL469197201L
aL314447874L
aL2951000L
aL3616962L
aL3932661L
aL235795810L
aL295655216L
aL410311544L
aL16613187L
aL27807383L
aL29047180L
aL1059188386L
aL191903541L
aL3248867L
aL25866863L
aL196735012L
aL243268524L
aL260123558L
aL920026L
aL7898559L
aL379491367L
aL487164421L
aL5052825L
aL1143730983L
aL344544L
aL93191L
aL28474432L
aL11394129L
aL45459009L
aL517808701L
aL50866602L
aL1137547922L
aL207772928L
aL1013958147L
aL305482103L
aL189258854L
aL377219749L
aL185563037L
aL240121205L
aL251888417L
aL18711364L
aL1165667454L
aL246139981L
aL555226984L
aL202015467L
aL21076922L
aL33945912L
aL234937619L
aL1460519L
aL2255612L
aL177322315L
aL336852413L
aL1117402381L
aL188341569L
aL12442666L
aL298775747L
aL52179L
aL246801170L
aL288168658L
aL281393077L
aL486403844L
aL281328281L
aL6503492L
aL1002503247L
aL8132881L
aL456774611L
aL683337198L
aL4812011L
aL7451065L
aL654257L
aL43445467L
aL226460609L
aL232066467L
aL219175056L
aL40256967L
aL8351627L
aL504350927L
aL38260976L
aL634996258L
aL902866329L
aL24500355L
aL24751824L
aL1160658054L
aL193131222L
aL256770313L
aL40053144L
aL43990372L
aL184177970L
aL653359518L
aL5099253L
aL615763817L
aL297746091L
aL504220693L
aL239087283L
aL29309336L
aL10650240L
aL504198483L
aL374618997L
aL349052645L
aL14637235L
aL19622125L
aL7436337L
aL897358L
aL12697140L
aL144534745L
aL985205729L
aL1022119684L
aL329704324L
aL43094133L
aL52554566L
aL926001047L
aL357299425L
aL22169307L
aL40986045L
aL593491619L
aL283683569L
aL22846108L
aL237312733L
aL234180154L
aL7653461L
aL27856897L
aL20423396L
aL24948966L
aL1389226L
aL353811992L
aL453889018L
aL994222029L
aL1083705814L
aL211384809L
aL197555202L
aL244819823L
aL3555872L
aL21188860L
aL52171340L
aL264105L
aL325789194L
aL854515528L
aL562639800L
aL214049664L
aL2680151L
aL94274L
aL613220258L
aL22436257L
aL11843868L
aL221279569L
aL301663146L
aL270376919L
aL3985521L
aL19217532L
aL180492563L
aL607187079L
aL3173131L
aL512551734L
aL182747661L
aL3794902L
aL248578952L
aL175135276L
aL232067L
aL187455244L
aL244544335L
aL17109301L
aL176996770L
aL5782152L
aL2707360L
aL12313533L
aL144455115L
aL224304360L
aL55375872L
aL4417552L
aL4638679L
aL468334883L
aL313562500L
aL298707506L
aL227440239L
aL414373826L
aL348229533L
aL204824L
aL185126743L
aL382686874L
aL1134083746L
aL10003712L
aL268569167L
aL440174227L
aL44446976L
aL225826285L
aL351420459L
aL4288753L
aL305992615L
aL25010999L
aL290604400L
aL1006554945L
aL12426106L
aL164240L
aL14440983L
aL25995348L
aL216732832L
aL11841324L
aL248197712L
aL18261943L
aL45418691L
aL249279998L
aL343314812L
aL221873726L
aL261376771L
aL196543767L
aL48800361L
aL584477906L
aL1435560L
aL836483L
aL276826642L
aL431216405L
aL42805450L
aL248535277L
aL2474418L
aL1100660L
aL3071315L
aL7992563L
aL445416391L
aL636554796L
aL41999330L
aL219886097L
aL213226692L
aL670984496L
aL1058719761L
aL432339344L
aL343120774L
aL9163089L
aL22841473L
aL370326331L
aL198893066L
aL34759055L
aL54690043L
aL958372053L
aL21583720L
aL21995042L
aL20425910L
aL13123346L
aL312058496L
aL567092156L
aL233583653L
aL199644530L
aL42106139L
aL44832320L
aL188150644L
aL30584293L
aL21049480L
aL1073218210L
aL224464206L
aL55122152L
aL215951792L
aL40001028L
aL4906007L
aL191261325L
aL15342173L
aL4336897L
aL288430495L
aL367171029L
aL221288169L
aL196863213L
aL260938600L
aL219042023L
aL5261410L
aL3499381L
aL166341L
aL185535272L
aL21892368L
aL395257526L
aL25288013L
aL46033717L
aL233916401L
aL283834495L
aL174812075L
aL3663370L
aL24040202L
aL53689827L
aL459601002L
aL256170490L
aL1156576722L
aL614122341L
aL248169152L
aL189763917L
aL11684811L
aL278801512L
aL1065792329L
aL175691974L
aL598929L
aL54129547L
aL230613375L
aL384438571L
aL261791397L
aL232263016L
aL52464818L
aL54051301L
aL653156L
aL251238890L
aL32282531L
aL346271323L
aL459201073L
aL204974077L
aL584565345L
aL48825037L
aL14779381L
aL35973414L
aL24602809L
aL438791587L
aL1016060256L
aL791240740L
aL12140276L
aL17036552L
aL212215030L
aL416013553L
aL1140997517L
aL19107038L
aL512011860L
aL1038284266L
aL1170505660L
aL302215501L
aL30985742L
aL20830244L
aL6105673L
aL30503149L
aL566370L
aL2960067L
aL12315031L
aL14402131L
aL4097860L
aL1041960501L
aL1142937L
aL20005092L
aL4897366L
aL204853635L
aL3062985L
aL368031353L
aL54344001L
aL30372224L
aL308706112L
aL343973362L
aL397795617L
aL964470131L
aL1139644645L
aL662313759L
aL1146036424L
aL286269053L
aL16287967L
aL28953580L
aL427454501L
aL579937L
aL19854452L
aL3753347L
aL8492191L
aL4171789L
aL235759065L
aL8088075L
aL143673059L
aL25731644L
aL9343157L
aL176642329L
aL885230L
aL213742776L
aL395126092L
aL709000310L
aL17501226L
aL1148693703L
aL204907064L
aL31106203L
aL325023465L
aL12539294L
aL248387693L
aL14476582L
aL11888758L
aL189873875L
aL51755297L
aL22002142L
aL52832883L
aL199873477L
aL16517590L
aL402960057L
aL396473697L
aL215512757L
aL284968255L
aL682328L
aL306085527L
aL230962131L
aL257621869L
aL144863792L
aL262276466L
aL374511726L
aL279968457L
aL7896621L
aL1538034L
aL11240191L
aL12056654L
aL322022048L
aL274037460L
aL823794660L
aL1601027L
aL7217831L
aL12172496L
aL401393723L
aL40769300L
aL15699644L
aL423377649L
aL325182700L
aL31015020L
aL297524797L
aL12252759L
aL15161377L
aL2818092L
aL54493292L
aL319896572L
aL11847586L
aL186588986L
aL6673320L
aL24097260L
aL5024637L
aL562362566L
aL195580002L
aL227081671L
aL32458819L
aL25171827L
aL2145894L
aL22999886L
aL218931936L
aL432339637L
aL24070834L
aL181487481L
aL812281697L
aL5689324L
aL24102601L
aL1122523689L
aL1130478188L
aL380620813L
aL252706138L
aL12347960L
aL282297217L
aL14308111L
aL53470086L
aL810256L
aL8360559L
aL32123447L
aL36915665L
aL216953165L
aL4898459L
aL27968013L
aL348309020L
aL214616287L
aL399386519L
aL403808095L
aL17546229L
aL17536081L
aL30697322L
aL799821257L
aL320616108L
aL182405105L
aL251715833L
aL227493419L
aL445551892L
aL144326185L
aL342773417L
aL190500236L
aL5676951L
aL175457444L
aL185218611L
aL34980155L
aL289633850L
aL1696973L
aL202919941L
aL226662815L
aL50672190L
aL49237745L
aL671053069L
aL8951132L
aL510376045L
aL891707L
aL225134604L
aL280812516L
aL296802698L
aL37789958L
aL519408771L
aL115887L
aL704108676L
aL248097987L
aL301711167L
aL197477658L
aL731030328L
aL1451074L
aL272357201L
aL857108873L
aL881508027L
aL520562999L
aL144079172L
aL286393578L
aL9273024L
aL9262654L
aL182815504L
aL16929058L
aL55210L
aL317513424L
aL11002089L
aL5860280L
aL428406L
aL380370486L
aL48192365L
aL398880631L
aL296274715L
aL233631095L
aL428914045L
aL274621250L
aL262935470L
aL568906862L
aL720413869L
aL281016235L
aL323162536L
aL532359413L
aL332448310L
aL443650327L
aL41324516L
aL290804725L
aL216988450L
aL2528662L
aL267239355L
aL212000287L
aL26365297L
aL12638262L
aL183664744L
aL47126547L
aL357275905L
aL18201818L
aL49771185L
aL6151184L
aL4144566L
aL182171515L
aL17752422L
aL587840332L
aL1134665135L
aL209674124L
aL9368147L
aL229411286L
aL8467581L
aL5086076L
aL581137529L
aL31488962L
aL865520974L
aL228647285L
aL31611448L
aL273807720L
aL4590569L
aL326282561L
aL774983L
aL392237185L
aL430422126L
aL15872582L
aL294059526L
aL199262875L
aL395492742L
aL48017994L
aL265041477L
aL194719099L
aL26286199L
aL547500157L
aL190891463L
aL209433290L
aL245728151L
aL197317342L
aL340872435L
aL32624221L
aL2624441L
aL295837527L
aL1134009446L
aL4445762L
aL30371519L
aL12556214L
aL212902992L
aL47089218L
aL508237633L
aL562522745L
aL214060239L
aL35059166L
aL223868310L
aL179436148L
aL286738866L
aL195580107L
aL574401094L
aL1668486L
aL373174351L
aL246031490L
aL4570944L
aL50673828L
aL5661848L
aL353947535L
aL365426766L
aL647845L
aL1125539891L
aL291597987L
aL201851011L
aL291831660L
aL391960724L
aL229830607L
aL509940558L
aL1133359386L
aL207667735L
aL183676291L
aL471016156L
aL241441660L
aL209370170L
aL242073641L
aL3451675L
aL654961814L
aL53634905L
aL216666594L
aL368571896L
aL337744916L
aL18753462L
aL13555438L
aL228304786L
aL3645113L
aL406242767L
aL17648610L
aL222946260L
aL964924L
aL1123544925L
aL23456551L
aL217782879L
aL553192612L
aL22566071L
aL272156846L
aL255463L
aL2621210L
aL234475042L
aL18494378L
aL205010134L
aL51131315L
aL212593473L
aL12625423L
aL27963028L
aL14505371L
aL174804977L
aL481497127L
aL206292847L
aL20201833L
aL315546761L
aL205875170L
aL46609264L
aL9611238L
aL192691581L
aL190825906L
aL204995778L
aL308817057L
aL11461268L
aL414463958L
aL305644243L
aL42066404L
aL432742786L
aL30769001L
aL184580393L
aL314807021L
aL5630459L
aL3225706L
aL8036992L
aL236930603L
aL12544543L
aL4343663L
aL551533285L
aL221914205L
aL335566666L
aL207511047L
aL14135600L
aL194414386L
aL338401022L
aL333019315L
aL50444519L
aL339632630L
aL228989868L
aL38391344L
aL305005499L
aL36908037L
aL267687864L
aL21081101L
aL276007085L
aL46815341L
aL196543502L
aL445599399L
aL14227239L
aL5041513L
aL21835614L
aL7536961L
aL20032199L
aL1029484362L
aL4326124L
aL1144785L
aL2914757L
aL409981367L
aL29830029L
aL269984674L
aL1112207308L
aL27047322L
aL601400530L
aL549420629L
aL212167093L
aL392905264L
aL263493543L
aL3462323L
aL8223324L
aL10494413L
aL320770687L
aL812655929L
aL232542119L
aL5684244L
aL29351514L
aL184109447L
aL7776042L
aL222693626L
aL296217163L
aL55990816L
aL462394327L
aL1064864L
aL21805980L
aL691064668L
aL4369135L
aL206950L
aL9222815L
aL41998425L
aL201015230L
aL146226393L
aL197133757L
aL14229437L
aL28130419L
aL192203824L
aL347676184L
aL343245333L
aL325052657L
aL263252850L
aL249104296L
aL887625218L
aL493494731L
aL10999115L
aL799268386L
aL31031738L
aL4453563L
aL371260821L
aL450975936L
aL30829398L
aL45201476L
aL8068029L
aL412260356L
aL18196642L
aL40389309L
aL265477213L
aL25197471L
aL313672780L
aL288896556L
aL4285475L
aL47422414L
aL35691982L
aL16603868L
aL16017835L
aL288539239L
aL13119015L
aL879141147L
aL1073294190L
aL234516694L
aL187282130L
aL306276107L
aL220307826L
aL180655896L
aL289551918L
aL229783757L
aL182979917L
aL31139028L
aL7024666L
aL43682431L
aL499076256L
aL20710102L
aL255201628L
aL198958342L
aL745478501L
aL13215016L
aL300339444L
aL53327812L
aL305415100L
aL38801826L
aL272406512L
aL292525031L
aL4231585L
aL336854948L
aL1024119381L
aL186732938L
aL47713854L
aL28552475L
aL177390276L
aL13284164L
aL22492791L
aL751738L
aL468109440L
aL271866955L
aL33586555L
aL146149582L
aL360109717L
aL22138939L
aL253634857L
aL1159012966L
aL240650516L
aL222611462L
aL8359976L
aL198101392L
aL18951409L
aL197088346L
aL383352833L
aL8568458L
aL499621645L
aL13594723L
aL43333138L
aL351793801L
aL12964045L
aL866078L
aL45864764L
aL192380374L
aL643405729L
aL1136766540L
aL9164892L
aL14247573L
aL206708824L
aL13430679L
aL50935077L
aL6119230L
aL175700692L
aL370410132L
aL46346577L
aL11560196L
aL201109761L
aL317433305L
aL11772439L
aL17775299L
aL1028875918L
aL175472422L
aL731834042L
aL1096425294L
aL300587087L
aL175252477L
aL18702581L
aL45975812L
aL4283226L
aL332902910L
aL44368809L
aL34377252L
aL584100969L
aL7593764L
aL2676706L
aL192205919L
aL50244315L
aL1050793277L
aL393000967L
aL9730715L
aL489439392L
aL6890568L
aL266576516L
aL757968171L
aL18314054L
aL867730093L
aL26207752L
aL327503447L
aL795179624L
aL1568561L
aL513916503L
aL229011534L
aL18935469L
aL11489172L
aL1101502697L
aL698849437L
aL689174258L
aL18565009L
aL1017716269L
aL3975009L
aL494019862L
aL306624131L
aL10902049L
aL20438359L
aL31906352L
aL472654811L
aL723082824L
aL531033812L
aL3170833L
aL54952496L
aL211495571L
aL174798541L
aL12257859L
aL13474071L
aL44947418L
aL18463651L
aL28147461L
aL353000056L
aL338534611L
aL460806231L
aL7171577L
aL265476043L
aL220934315L
aL196341727L
aL688013168L
aL185623641L
aL870312L
aL176061362L
aL231723175L
aL373166990L
aL224625274L
aL506650986L
aL37472973L
aL19172984L
aL104942886L
aL44741494L
aL262566267L
aL518452808L
aL485737805L
aL11028388L
aL32001099L
aL8754713L
aL365330876L
aL294800021L
aL22913855L
aL144885544L
aL4131605L
aL4235226L
aL26850922L
aL31302894L
aL3516781L
aL515790485L
aL42320767L
aL571481667L
aL454697L
aL27531334L
aL332928L
aL5433584L
aL8733985L
aL30614735L
aL4113359L
aL30879654L
aL32106452L
aL62689L
aL12291330L
aL258959729L
aL13768379L
aL40297610L
aL174898748L
aL14562862L
aL173879262L
aL215896590L
aL30577102L
aL366091492L
aL254861747L
aL191692874L
aL6936292L
aL15921416L
aL285114064L
aL30549685L
aL21826210L
aL11722327L
aL1074270943L
aL1134230420L
aL289245853L
aL10850218L
aL318100164L
aL23695828L
aL275079593L
aL18152928L
aL24609671L
aL308067404L
aL18740912L
aL207681173L
aL33304339L
aL254405301L
aL32506980L
aL36605171L
aL270057427L
aL490309287L
aL2824599L
aL201029139L
aL40833939L
aL471155256L
aL11040711L
aL22023246L
aL1131042680L
aL861713396L
aL48757007L
aL24704610L
aL42791945L
aL5365351L
aL490334793L
aL256089838L
aL23753977L
aL35294745L
aL538730L
aL244398029L
aL365584547L
aL7618303L
aL420407028L
aL325092212L
aL262274600L
aL337725408L
aL310919553L
aL192728715L
aL804585398L
aL15075361L
aL679938578L
aL225165643L
aL254414740L
aL985743529L
aL1119194208L
aL31387316L
aL13457189L
aL222716068L
aL1084415L
aL231356288L
aL574002009L
aL539225088L
aL244419784L
aL304802526L
aL489268513L
aL226900832L
aL17851008L
aL372151L
aL180722317L
aL3934297L
aL4395649L
aL486661091L
aL1804831L
aL962497422L
aL2981147L
aL174361908L
aL3174385L
aL238651447L
aL769003L
aL41265185L
aL273515802L
aL400925151L
aL16477538L
aL1073558906L
aL6868788L
aL29150041L
aL477414111L
aL280726426L
aL21397159L
aL5630886L
aL334048122L
aL299985793L
aL625383443L
aL298508226L
aL304069087L
aL12938913L
aL1067509305L
aL178629185L
aL29313548L
aL30688043L
aL197639929L
aL679527124L
aL1048207339L
aL487885673L
aL54216926L
aL9740665L
aL231210746L
aL271793078L
aL867953726L
aL228720587L
aL6618253L
aL267448610L
aL38576325L
aL16013288L
aL12006741L
aL289177492L
aL36010347L
aL53890348L
aL268968745L
aL723387380L
aL1158549L
aL201478724L
aL320419765L
aL186872158L
aL51681775L
aL214476065L
aL352060813L
aL221119833L
aL250232605L
aL27447566L
aL679298123L
aL7851170L
aL7175601L
aL945057115L
aL32536423L
aL1057119910L
aL278081L
aL591627668L
aL259044867L
aL2017035L
aL201120919L
aL644476L
aL53694003L
aL37062924L
aL350751474L
aL3588474L
aL206348980L
aL14165761L
aL257300175L
aL215025981L
aL241595625L
aL174500701L
aL391328007L
aL25012120L
aL180304083L
aL10091431L
aL255080876L
aL266123455L
aL6016964L
aL1053189180L
aL15998827L
aL289928051L
aL579222731L
aL201724200L
aL323899839L
aL22113165L
aL229631324L
aL506710477L
aL556270577L
aL299997539L
aL181423080L
aL436968399L
aL286119975L
aL42498438L
aL30668916L
aL23655016L
aL208116296L
aL4564941L
aL16858491L
aL220995307L
aL1668890L
aL428964293L
aL336918011L
aL1111747129L
aL11148243L
aL189790142L
aL2275987L
aL9260479L
aL7732400L
aL333371039L
aL203230298L
aL1748398L
aL984492485L
aL235415575L
aL890217155L
aL255755436L
aL240648998L
aL39487011L
aL501151505L
aL51318711L
aL411793684L
aL16893410L
aL26183828L
aL1146724621L
aL23412537L
aL144932890L
aL247817930L
aL526751815L
aL641594630L
aL884128818L
aL258750831L
aL457918192L
aL447542699L
aL4931371L
aL12015753L
aL49960880L
aL270756942L
aL1164538648L
aL182811090L
aL19457547L
aL20853052L
aL37276159L
aL1691652L
aL28120079L
aL55129538L
aL188643004L
aL1076325096L
aL848737699L
aL43493632L
aL175725696L
aL628440381L
aL3480832L
aL8132187L
aL9341958L
aL23684302L
aL653973095L
aL36307412L
aL818299952L
aL391393400L
aL631081200L
aL1916404L
aL25975306L
aL35983200L
aL230875507L
aL436034018L
aL175880986L
aL321131054L
aL41348153L
aL178044385L
aL35360708L
aL3603279L
aL3914621L
aL563658148L
aL1236696L
aL823844757L
aL3003649L
aL18566229L
aL8372423L
aL6287734L
aL1832701L
aL247649873L
aL1041702L
aL3482360L
aL282696178L
aL175356101L
aL479563563L
aL3995704L
aL255159430L
aL419843259L
aL193450237L
aL4070686L
aL210396294L
aL182075903L
aL273695698L
aL1054024302L
aL328463876L
aL297428604L
aL6151296L
aL14160027L
aL511775957L
aL278184032L
aL261756154L
aL1277979L
aL4198642L
aL209665914L
aL217321097L
aL210618676L
aL430711593L
aL43138390L
aL390759287L
aL29622194L
aL177889901L
aL581757620L
aL497007851L
aL716982473L
aL21597178L
aL500318854L
aL6789937L
aL631725091L
aL12539224L
aL185246090L
aL264838L
aL246837446L
aL16735944L
aL439729168L
aL1650346L
aL25112449L
aL371500899L
aL33090343L
aL271879436L
aL223862658L
aL210392849L
aL1002512572L
aL208642197L
aL41268173L
aL5838665L
aL1136848792L
aL637751661L
aL30352975L
aL9541600L
aL752210513L
aL45463489L
aL534385915L
aL2831495L
aL331739717L
aL996885218L
aL14020095L
aL242412644L
aL271656680L
aL1104707044L
aL52056240L
aL178872414L
aL1058117912L
aL18228851L
aL305482906L
aL222698300L
aL929024L
aL7445186L
aL40675041L
aL38843092L
aL523135405L
aL401209099L
aL181168309L
aL667941583L
aL457024126L
aL11330514L
aL30679177L
aL43409708L
aL8957096L
aL224757493L
aL12035544L
aL25133465L
aL13583764L
aL13452516L
aL632831506L
aL12760549L
aL544613173L
aL27712564L
aL36702767L
aL1112340230L
aL984185075L
aL533490L
aL14581282L
aL241884953L
aL51322259L
aL232580360L
aL1393110L
aL319989481L
aL33537431L
aL236515010L
aL208141393L
aL16135452L
aL305098780L
aL54823525L
aL293210377L
aL14851573L
aL3386446L
aL268922912L
aL200744355L
aL324264299L
aL4942125L
aL191866695L
aL1020676698L
aL25250941L
aL37904747L
aL447102452L
aL42333393L
aL284242250L
aL273193294L
aL231657865L
aL18377129L
aL335269395L
aL15211612L
aL660899184L
aL15882135L
aL52399373L
aL476419900L
aL271964321L
aL13455728L
aL302436500L
aL30645463L
aL324228784L
aL261050418L
aL6350390L
aL4685582L
aL5598842L
aL283134696L
aL143926283L
aL281525096L
aL51336338L
aL13084557L
aL253903796L
aL476552573L
aL314333556L
aL199009112L
aL738039585L
aL417710L
aL182782628L
aL9209748L
aL974849689L
aL185922401L
aL273160440L
aL1141023702L
aL1111913186L
aL176674440L
aL3554790L
aL1248965L
aL29107136L
aL2647748L
aL912948056L
aL348480869L
aL30804116L
aL49221888L
aL233020900L
aL47295951L
aL6391137L
aL280801256L
aL39956993L
aL3526125L
aL468742980L
aL819424809L
aL489469677L
aL219455007L
aL444319978L
aL298204392L
aL207078043L
aL218248895L
aL27983740L
aL31113925L
aL22713088L
aL776927452L
aL444593495L
aL7178153L
aL43968627L
aL22502210L
aL8248459L
aL190661410L
aL221323246L
aL244786095L
aL6041190L
aL216206694L
aL324526L
aL546751827L
aL749318573L
aL1601698L
aL177946547L
aL1177009L
aL331396L
aL11658117L
aL536848667L
aL370581204L
aL177407718L
aL261474808L
aL38656635L
aL17986735L
aL331269936L
aL21058444L
aL10258715L
aL350622498L
aL35741532L
aL24306262L
aL195503548L
aL258143639L
aL305792654L
aL698420700L
aL27723423L
aL13353553L
aL216260756L
aL31349565L
aL190705680L
aL174368842L
aL414224179L
aL25745590L
aL174921053L
aL323064356L
aL6639990L
aL208312075L
aL200867636L
aL320077879L
aL272075794L
aL50424485L
aL24104509L
aL190270089L
aL5837239L
aL291159591L
aL225433655L
aL268231957L
aL38668777L
aL19620272L
aL511965343L
aL193750467L
aL598611L
aL30604297L
aL360824257L
aL8772897L
aL809592147L
aL177003422L
aL173582920L
aL255147593L
aL9205519L
aL4539313L
aL230917470L
aL5794830L
aL20431410L
aL338565382L
aL327738677L
aL214502843L
aL271922817L
aL264133742L
aL215316942L
aL208602171L
aL737222961L
aL767168326L
aL51546344L
aL244259243L
aL26604337L
aL6909995L
aL272786821L
aL281260680L
aL470017809L
aL230306929L
aL277304L
aL29026895L
aL929347893L
aL603941115L
aL11003383L
aL21833046L
aL230140971L
aL800531720L
aL48733085L
aL12217826L
aL8148214L
aL1143774704L
aL36658349L
aL219039344L
aL270511093L
aL51707369L
aL185364062L
aL325112776L
aL230641554L
aL202826954L
aL50200403L
aL36439657L
aL16373178L
aL180503391L
aL15671916L
aL13362257L
aL281379194L
aL10339192L
aL25905276L
aL1127509065L
aL514219017L
aL54229561L
aL10172489L
aL216168481L
aL1103110817L
aL9670580L
aL301908395L
aL8544117L
aL46601412L
aL245361552L
aL248078182L
aL176655450L
aL8882051L
aL184915742L
aL146246551L
aL54630782L
aL327084834L
aL1159042767L
aL4767387L
aL42013780L
aL7652962L
aL253996250L
aL261780922L
aL12727794L
aL7493467L
aL30958229L
aL23839424L
aL184296961L
aL52426888L
aL528742030L
aL331491331L
aL5601971L
aL195312372L
aL7720118L
aL53994335L
aL53603015L
aL174311011L
aL26937598L
aL352618779L
aL291135037L
aL11911957L
aL5864069L
aL22625423L
aL872494L
aL231828035L
aL24334810L
aL401222739L
aL187167157L
aL7444851L
aL7017102L
aL2929874L
aL13485062L
aL5156269L
aL146248779L
aL194829541L
aL1195927L
aL2180754L
aL224657789L
aL51361356L
aL9082044L
aL411828115L
aL3431396L
aL1007211L
aL49033L
aL290031078L
aL244332483L
aL298816247L
aL7686937L
aL6476945L
aL11112982L
aL18135429L
aL35383103L
aL43181375L
aL217532118L
aL486570038L
aL242195812L
aL39909290L
aL6723789L
aL2038747L
aL144276700L
aL39330126L
aL516274507L
aL46962987L
aL977517L
aL330374L
aL180558021L
aL53985626L
aL5975139L
aL46188561L
aL12469972L
aL5052778L
aL21546252L
aL6581701L
aL253505771L
aL12424639L
aL224813455L
aL40918188L
aL1587595L
aL390622083L
aL32487834L
aL289234201L
aL264894760L
aL243726450L
aL14839881L
aL32696751L
aL1516189L
aL7334692L
aL205419551L
aL145454095L
aL6729718L
aL222695294L
aL8025486L
aL180985174L
aL44002156L
aL12637777L
aL252384531L
aL14269374L
aL37074514L
aL453872449L
aL11813586L
aL592067L
aL305822985L
aL56116217L
aL54605870L
aL265975837L
aL359520740L
aL13648431L
aL277840950L
aL331211519L
aL974602528L
aL189958274L
aL1116426306L
aL323324414L
aL15915065L
aL413366057L
aL11187154L
aL221782488L
aL21701795L
aL3399679L
aL5469497L
aL11870983L
aL591116907L
aL295572609L
aL414102506L
aL299913641L
aL223432855L
aL506924831L
aL270086917L
aL4069828L
aL1427360L
aL209919551L
aL37912603L
aL244416505L
aL30687221L
aL288134015L
aL420955336L
aL4883605L
aL55207943L
aL642726214L
aL432821308L
aL226501592L
aL8507536L
aL3692044L
aL177239112L
aL26143830L
aL951868L
aL555646675L
aL955326117L
aL253616205L
aL49294437L
aL275374399L
aL381670475L
aL14924791L
aL3039401L
aL235663102L
aL308570304L
aL238262702L
aL4459324L
aL292775019L
aL26965126L
aL2588456L
aL201532899L
aL206342696L
aL5636067L
aL181948051L
aL37001950L
aL644054298L
aL2373609L
aL10159686L
aL229248014L
aL259556927L
aL4846303L
aL21616191L
aL19631291L
aL183654157L
aL748003340L
aL199595956L
aL3458651L
aL38612915L
aL43476298L
aL36256813L
aL49295476L
aL233319053L
aL11422268L
aL40286609L
aL14099443L
aL216191552L
aL300747481L
aL48330853L
aL26866855L
aL214947855L
aL8468637L
aL33114709L
aL313060273L
aL862050897L
aL3760981L
aL42297662L
aL338188422L
aL645006331L
aL264003236L
aL218670511L
aL966430634L
aL20581273L
aL104845086L
aL344914000L
aL44237007L
aL295408502L
aL348807824L
aL21123311L
aL26838974L
aL9186957L
aL25859211L
aL429924984L
aL145081151L
aL19915922L
aL222872L
aL1442207L
aL298750812L
aL183989369L
aL21917826L
aL10561017L
aL265217386L
aL1009847L
aL31431144L
aL259272695L
aL619274L
aL2702913L
aL9434578L
aL30692335L
aL1036950476L
aL27742921L
aL20689248L
aL30870329L
aL195550880L
aL183905753L
aL232475543L
aL419417971L
aL299892021L
aL226389065L
aL28483236L
aL269045019L
aL42634032L
aL226826774L
aL6635323L
aL6881566L
aL546172217L
aL374381465L
aL173677358L
aL6246581L
aL3012590L
aL38687009L
aL189000253L
aL235441755L
aL143864146L
aL14972758L
aL40724685L
aL505569177L
aL442980L
aL7657704L
aL231910599L
aL238194134L
aL236595538L
aL814046161L
aL1005985146L
aL240764748L
aL211510234L
aL245166287L
aL42229777L
aL55073611L
aL8910233L
aL320418541L
aL4433839L
aL33960149L
aL11811135L
aL213810942L
aL497290546L
aL26582993L
aL265881518L
aL47330528L
aL37328541L
aL8642470L
aL180785900L
aL345784812L
aL41713241L
aL351320085L
aL143561177L
aL31111055L
aL355521926L
aL46085165L
aL17327299L
aL11144744L
aL655872253L
aL1873110L
aL244200469L
aL281082026L
aL181244034L
aL373797323L
aL570397335L
aL1158557L
aL558352117L
aL458944612L
aL27046816L
aL37471939L
aL250275530L
aL306301973L
aL176243319L
aL54051566L
aL254777584L
aL402141105L
aL350879683L
aL976915047L
aL604811681L
aL4673403L
aL316844474L
aL569265939L
aL233828904L
aL8122592L
aL345854266L
aL49874016L
aL355999233L
aL191683090L
aL210651798L
aL212273742L
aL933810685L
aL1146985347L
aL47092109L
aL335368937L
aL542105032L
aL324595916L
aL484817592L
aL3483505L
aL32115685L
aL38308520L
aL306846514L
aL14442542L
aL19369332L
aL13663124L
aL184728729L
aL8236689L
aL25755890L
aL245211670L
aL424507862L
aL504976860L
aL693735432L
aL6982943L
aL40739740L
aL337946470L
aL41672253L
aL197441231L
aL4994275L
aL214451092L
aL258659320L
aL263012144L
aL298070856L
aL28685160L
aL7162801L
aL219676839L
aL16547686L
aL29261461L
aL1009074632L
aL40800830L
aL194335682L
aL180121054L
aL481837201L
aL269876605L
aL473895435L
aL362768867L
aL2825135L
aL4979843L
aL269308123L
aL191825771L
aL367300372L
aL248261512L
aL18412062L
aL1093598578L
aL12269737L
aL3354349L
aL5966471L
aL191693467L
aL10706246L
aL52038922L
aL10921410L
aL244392212L
aL244552107L
aL264541568L
aL247609867L
aL11195741L
aL17018342L
aL633628365L
aL119591L
aL385166062L
aL10932041L
aL24885505L
aL54751286L
aL595207582L
aL146082109L
aL280846617L
aL275805241L
aL210267650L
aL189206298L
aL192885957L
aL309504942L
aL270078726L
aL24453387L
aL182059862L
aL70611L
aL231226850L
aL808907054L
aL19264383L
aL15976756L
aL7349393L
aL47870470L
aL15785838L
aL3713026L
aL30827282L
aL19701394L
aL2774201L
aL10855762L
aL187378775L
aL335736158L
aL146219226L
aL1104570940L
aL528661047L
aL402394845L
aL4188496L
aL380937692L
aL987110L
aL4622863L
aL32522693L
aL17159583L
aL28552020L
aL14586953L
aL2892759L
aL192872677L
aL1115308131L
aL339566805L
aL1594698L
aL20807526L
aL878638L
aL460652907L
aL368106297L
aL27894462L
aL10744066L
aL15873649L
aL186064511L
aL184465126L
aL310617806L
aL23753629L
aL211775980L
aL212510607L
aL211427327L
aL7016791L
aL24968520L
aL227217439L
aL422931039L
aL235290497L
aL1314511L
aL350430953L
aL528184570L
aL26308972L
aL268722060L
aL5187302L
aL10013101L
aL245239550L
aL275442465L
aL348400847L
aL2652374L
aL430599708L
aL271097553L
aL332045706L
aL268982217L
aL357331828L
aL49280931L
aL327885428L
aL780304437L
aL287214629L
aL195129278L
aL1470181L
aL245237365L
aL274754128L
aL192937905L
aL581042761L
aL527844105L
aL291891102L
aL202049551L
aL461204005L
aL15914106L
aL366476407L
aL3334042L
aL4040724L
aL996450231L
aL357222302L
aL224230925L
aL20394700L
aL54174123L
aL17052046L
aL378372546L
aL213615151L
aL37962180L
aL309084604L
aL38555728L
aL281270593L
aL307253181L
aL18822061L
aL389888780L
aL18877985L
aL1107381186L
aL183447918L
aL209450687L
aL184097274L
aL26442861L
aL265395809L
aL7061395L
aL41295054L
aL17397508L
aL318231855L
aL173781839L
aL52594966L
aL347346163L
aL916154957L
aL217865585L
aL146212005L
aL257000057L
aL580762797L
aL335406195L
aL7958672L
aL174214119L
aL549695004L
aL238032771L
aL55134498L
aL303598866L
aL49854608L
aL22226254L
aL12724426L
aL27280080L
aL540071448L
aL26510915L
aL557418143L
aL26926383L
aL144730469L
aL823036782L
aL31522254L
aL293767L
aL23950065L
aL188584579L
aL428060255L
aL280477255L
aL4718951L
aL2772028L
aL1468998L
aL226057962L
aL238059621L
aL348544176L
aL673275437L
aL665840585L
aL366921269L
aL232435484L
aL615727958L
aL222153929L
aL17827554L
aL218189882L
aL261403977L
aL4536236L
aL309237782L
aL825422803L
aL216803333L
aL233025140L
aL8769618L
aL39175206L
aL26918235L
aL835749L
aL248804997L
aL513184422L
aL215282449L
aL252364944L
aL375267591L
aL759689L
aL184222009L
aL1011375175L
aL305653974L
aL183029398L
aL348460144L
aL550898514L
aL26859793L
aL146142936L
aL194679190L
aL3316529L
aL45897981L
aL285727816L
aL393790294L
aL415829193L
aL289555378L
aL181621567L
aL750766546L
aL21425454L
aL372343063L
aL41420030L
aL39510902L
aL200650227L
aL318942709L
aL32812041L
aL210240519L
aL524970983L
aL246566663L
aL385392362L
aL523856913L
aL543996466L
aL9292537L
aL191474080L
aL219831621L
aL936940160L
aL299088771L
aL17315881L
aL200017729L
aL36039748L
aL577014711L
aL289097453L
aL497998982L
aL14583891L
aL4852183L
aL17120911L
aL377207943L
aL19271725L
aL176424697L
aL179007525L
aL188092302L
aL292880536L
aL253707245L
aL38417724L
aL194128286L
aL301590190L
aL27865121L
aL6197634L
aL375599L
aL21480678L
aL181292766L
aL330602577L
aL254713367L
aL355673934L
aL641928784L
aL242398484L
aL1148904662L
aL17970631L
aL329677889L
aL253157601L
aL145331912L
aL17888227L
aL212654046L
aL189708949L
aL910655781L
aL175016071L
aL43946202L
aL4865123L
aL36435633L
aL54065788L
aL190253466L
aL21142931L
aL25850701L
aL286359322L
aL427780591L
aL211321594L
aL22004059L
aL17336472L
aL41513643L
aL310927916L
aL533696340L
aL518804552L
aL1133034L
aL26586670L
aL38594269L
aL192559500L
aL226581271L
aL281676821L
aL29835760L
aL17552340L
aL39506411L
aL10264921L
aL5202090L
aL5143063L
aL248822712L
aL20904189L
aL420837772L
aL344445591L
aL334404571L
aL28244101L
aL212608854L
aL452191817L
aL396294899L
aL511756372L
aL1753601L
aL29456517L
aL108311L
aL144330005L
aL845778L
aL33432030L
aL297603544L
aL217326440L
aL391887392L
aL560425762L
aL15910096L
aL28505807L
aL24092495L
aL32673784L
aL230568766L
aL50853626L
aL22103398L
aL927592986L
aL383285181L
aL335609031L
aL219014844L
aL237879126L
aL536660541L
aL504949244L
aL320771765L
aL44772314L
aL293808725L
aL31009794L
aL181308L
aL443627479L
aL226145774L
aL212533644L
aL371360485L
aL30939805L
aL256210216L
aL49404203L
aL8973881L
aL212618776L
aL258896350L
aL212619561L
aL5269485L
aL1152952527L
aL43068083L
aL15299228L
aL204646130L
aL26916219L
aL174454722L
aL211471997L
aL560744228L
aL15353767L
aL331480543L
aL29892593L
aL26826533L
aL240308735L
aL1158253L
aL10669298L
aL11873804L
aL281345231L
aL249499065L
aL473695578L
aL1300304L
aL12265552L
aL23311740L
aL8190439L
aL197609852L
aL181273819L
aL194717744L
aL19523695L
aL209845457L
aL6542345L
aL370959365L
aL3272402L
aL262700121L
aL318192972L
aL43746948L
aL180233294L
aL393988586L
aL546220825L
aL39515830L
aL10326936L
aL38581037L
aL480613662L
aL11507642L
aL259596703L
aL232695072L
aL254585877L
aL226179405L
aL10469699L
aL29782417L
aL11790874L
aL10704946L
aL22691837L
aL28995937L
aL20529840L
aL32195969L
aL256327864L
aL22160892L
aL288011699L
aL782780285L
aL15687907L
aL20371188L
aL14857349L
aL191478044L
aL667508618L
aL43909811L
aL8108475L
aL193287632L
aL273154443L
aL10593503L
aL12278406L
aL272238078L
aL413599399L
aL316410426L
aL567360745L
aL227261303L
aL907292L
aL15167639L
aL189534033L
aL46131791L
aL32990874L
aL5266706L
aL1455791L
aL34225236L
aL146018067L
aL176649184L
aL469607379L
aL250313130L
aL253610936L
aL455053224L
aL30557065L
aL243535679L
aL398757628L
aL200669779L
aL498967711L
aL13264063L
aL975430731L
aL284932479L
aL440860227L
aL13313256L
aL576853738L
aL21121644L
aL17209147L
aL1005813642L
aL12968036L
aL1090456072L
aL412963814L
aL3500756L
aL249239114L
aL1150114829L
aL28755984L
aL273267424L
aL6898728L
aL2425436L
aL8284184L
aL437183151L
aL309197905L
aL11254355L
aL445365473L
aL187182468L
aL235494778L
aL578711190L
aL51669323L
aL181090046L
aL2024021L
aL1169693062L
aL670328445L
aL43001177L
aL12954554L
aL292475070L
aL270943449L
aL209810481L
aL32460107L
aL6263303L
aL8960396L
aL521168752L
aL583893331L
aL239382175L
aL862802526L
aL28441485L
aL540619706L
aL30247399L
aL396895788L
aL238654075L
aL425491586L
aL23622593L
aL248158266L
aL287861981L
aL200488477L
aL218007075L
aL44219540L
aL26403724L
aL270331033L
aL144146436L
aL25869962L
aL28517765L
aL229647536L
aL229499065L
aL32405047L
aL286984022L
aL575928588L
aL12261453L
aL15169725L
aL48752173L
aL27463921L
aL25183978L
aL254983720L
aL2507824L
aL29693266L
aL392112623L
aL1103974782L
aL21121912L
aL15663033L
aL213680229L
aL146105267L
aL534368941L
aL5895340L
aL758448410L
aL13493939L
aL633284000L
aL538462640L
aL348696108L
aL177812503L
aL343733861L
aL184186220L
aL1125022058L
aL17679854L
aL265348365L
aL13451145L
aL903440L
aL497946236L
aL15443652L
aL531676992L
aL246112L
aL47234801L
aL285073292L
aL305128886L
aL20155637L
aL229906L
aL237382083L
aL280585927L
aL287624157L
aL11280822L
aL179886025L
aL398310129L
aL205582663L
aL22047092L
aL237493229L
aL276807446L
aL266655428L
aL8266915L
aL22743813L
aL629179198L
aL209416171L
aL763571L
aL33601875L
aL13663475L
aL514283161L
aL344248996L
aL30119064L
aL3281935L
aL282518805L
aL654410874L
aL10835435L
aL1046878L
aL1633889L
aL7972000L
aL194726049L
aL5891317L
aL30817146L
aL192658661L
aL265266136L
aL246394337L
aL241658203L
aL192180700L
aL557259893L
aL401201338L
aL209885067L
aL37800590L
aL430013839L
aL185733489L
aL6415836L
aL1201909L
aL644224724L
aL145452436L
aL223357636L
aL627143710L
aL15779967L
aL273120726L
aL30666850L
aL251597359L
aL9131548L
aL498303921L
aL31144056L
aL206822243L
aL16708299L
aL26935278L
aL17980486L
aL43286362L
aL45412037L
aL202496340L
aL611728473L
aL17663544L
aL54798315L
aL448516087L
aL374594183L
aL10791855L
aL189810775L
aL410385701L
aL375743003L
aL423882868L
aL145379197L
aL344261145L
aL13491592L
aL26151520L
aL231623163L
aL29062779L
aL490398990L
aL193582303L
aL553841836L
aL27235450L
aL54494697L
aL332739173L
aL266757023L
aL27530304L
aL39320514L
aL54646921L
aL198167425L
aL54168127L
aL1078824L
aL180543399L
aL20791565L
aL6876441L
aL11641840L
aL310480493L
aL1068869166L
aL13431783L
aL12807237L
aL8761539L
aL191772691L
aL285374024L
aL2390820L
aL1080744L
aL5097508L
aL5766399L
aL42141896L
aL649248537L
aL197658172L
aL195655510L
aL190084052L
aL10932688L
aL329273114L
aL227069544L
aL15192725L
aL53444695L
aL4702096L
aL206860394L
aL234581813L
aL329845814L
aL4910736L
aL337126758L
aL362408326L
aL30772395L
aL231451201L
aL6058601L
aL213050955L
aL197758468L
aL12967236L
aL19478969L
aL531510655L
aL276394540L
aL3526011L
aL38875601L
aL146018101L
aL8735955L
aL12417086L
aL798649L
aL7067947L
aL16158551L
aL21589192L
aL1037722436L
aL4909278L
aL3294236L
aL175326964L
aL19290332L
aL11096665L
aL42723490L
aL12266217L
aL16755955L
aL185980377L
aL6867118L
aL19089280L
aL145741847L
aL53389698L
aL218351524L
aL30662351L
aL1149838702L
aL851509431L
aL325002616L
aL323561614L
aL2979804L
aL4679838L
aL314063675L
aL2415572L
aL239616L
aL4674545L
aL1089515575L
aL186889191L
aL201844335L
aL185744384L
aL8827866L
aL197439394L
aL248919892L
aL197966531L
aL489318282L
aL317336105L
aL180254667L
aL213541976L
aL271816040L
aL52081981L
aL7040149L
aL47137872L
aL627743882L
aL257874744L
aL37687777L
aL410829276L
aL288200246L
aL148124L
aL326798837L
aL229958596L
aL27096718L
aL417333348L
aL30804056L
aL3638479L
aL208417937L
aL29452085L
aL36174989L
aL212513445L
aL34008666L
aL3133560L
aL220384827L
aL6648724L
aL552276242L
aL307644441L
aL642431180L
aL51428600L
aL299563007L
aL8766305L
aL20163406L
aL627607228L
aL13453642L
aL70121L
aL616669601L
aL26035614L
aL1086810492L
aL1066956569L
aL876821L
aL8377040L
aL326524180L
aL4108049L
aL314363575L
aL514321681L
aL264893115L
aL177357048L
aL258370063L
aL1023968L
aL25290047L
aL702347582L
aL12528294L
aL187406012L
aL10880750L
aL32719888L
aL267575020L
aL48771174L
aL270926374L
aL21603730L
aL531733851L
aL391526640L
aL8734541L
aL1128545455L
aL17334224L
aL224693514L
aL268430363L
aL212320861L
aL3812475L
aL184896089L
aL387098142L
aL211878131L
aL304368205L
aL682650749L
aL235016494L
aL220229557L
aL50288819L
aL4883359L
aL3962927L
aL15469128L
aL265873008L
aL498227085L
aL5743085L
aL12480936L
aL215729250L
aL408251291L
aL962040445L
aL582995642L
aL1079013L
aL218307216L
aL190588565L
aL16833737L
aL475104927L
aL24977104L
aL8155183L
aL389003597L
aL1975578L
aL21173835L
aL325771270L
aL23975907L
aL262816628L
aL181422248L
aL225927937L
aL254528813L
aL54108462L
aL18160174L
aL273662965L
aL30923850L
aL104969426L
aL226460207L
aL327260575L
aL22334967L
aL35371617L
aL258686994L
aL215518298L
aL3374522L
aL268413593L
aL56191280L
aL264772537L
aL2179362L
aL18579715L
aL13146457L
aL33195378L
aL331252472L
aL4769462L
aL926358L
aL274599017L
aL1896994L
aL252692523L
aL10754578L
aL259806739L
aL52843893L
aL476498302L
aL519021400L
aL53993676L
aL298066732L
aL404602654L
aL2104992L
aL20953342L
aL27706884L
aL104962171L
aL251502218L
aL493886698L
aL15979624L
aL196726667L
aL209017275L
aL258420069L
aL191538704L
aL15961776L
aL323138084L
aL339394903L
aL307783917L
aL670409178L
aL795501067L
aL1094687607L
aL331920922L
aL778766735L
aL160873L
aL473495901L
aL15446027L
aL230181143L
aL328813864L
aL144537994L
aL207096273L
aL5492193L
aL335193144L
aL7326478L
aL22142335L
aL19217150L
aL4980924L
aL209210971L
aL7808085L
aL24295382L
aL13324670L
aL30282058L
aL42858794L
aL2198313L
aL876037L
aL936843801L
aL274974171L
aL3015814L
aL805380619L
aL272706021L
aL511365821L
aL15235341L
aL32680427L
aL186403887L
aL353532502L
aL341161375L
aL429846095L
aL306230892L
aL207104632L
aL962473196L
aL1148709197L
aL36482683L
aL4265284L
aL491155105L
aL216186259L
aL325395248L
aL189316859L
aL219012222L
aL47583576L
aL429524571L
aL449863509L
aL266118246L
aL184835449L
aL237780984L
aL3836739L
aL219726945L
aL817055320L
aL15190231L
aL6179500L
aL176961633L
aL1113082801L
aL1800611L
aL532673242L
aL235083576L
aL47723482L
aL182810762L
aL3338056L
aL315101518L
aL19515843L
aL324098880L
aL523667779L
aL51922551L
aL467706787L
aL48837538L
aL13656533L
aL193876811L
aL10754477L
aL13532977L
aL1120616399L
aL174571889L
aL307149111L
aL7591516L
aL8404153L
aL2501371L
aL353369772L
aL669844783L
aL321802889L
aL246073098L
aL10579110L
aL26722710L
aL27732926L
aL510671994L
aL37610321L
aL185595002L
aL34088625L
aL205050243L
aL179463255L
aL212630236L
aL7316779L
aL6249069L
aL26959402L
aL25853161L
aL41286703L
aL823615L
aL181295403L
aL722519L
aL25454253L
aL293458392L
aL9621686L
aL1053102179L
aL33240752L
aL981313665L
aL21141459L
aL372196692L
aL25116592L
aL208473162L
aL196838680L
aL214155203L
aL194268734L
aL530908607L
aL1126174183L
aL228322325L
aL8250666L
aL37485158L
aL948065L
aL2626119L
aL39212965L
aL1093815L
aL1066831523L
aL204862664L
aL199283809L
aL201062006L
aL237562719L
aL2213662L
aL215271023L
aL30003149L
aL333371387L
aL198421736L
aL293336505L
aL438311308L
aL633445637L
aL25890373L
aL23331716L
aL6796447L
aL43015760L
aL19375327L
aL20280741L
aL376620319L
aL572336375L
aL197119330L
aL231203850L
aL209703868L
aL21703958L
aL237091400L
aL1053462152L
aL290036260L
aL783088677L
aL382715122L
aL40228477L
aL42511762L
aL26857566L
aL7618772L
aL318962274L
aL298733678L
aL382856370L
aL703327356L
aL52111791L
aL27736085L
aL3374000L
aL2565089L
aL997501364L
aL195484274L
aL3762508L
aL11406661L
aL22730138L
aL1065914965L
aL287028326L
aL189321495L
aL14659210L
aL268188802L
aL1133614247L
aL4901347L
aL394856142L
aL611896704L
aL190103365L
aL422926118L
aL563994953L
aL190577324L
aL197644581L
aL7228901L
aL13213910L
aL413085613L
aL178552788L
aL10194703L
aL3932028L
aL2832614L
aL736801918L
aL793107315L
aL6847831L
aL357179582L
aL11558983L
aL633360L
aL6181074L
aL4322075L
aL13906219L
aL259560L
aL16802917L
aL51546983L
aL219250182L
aL277492754L
aL11641534L
aL1044247567L
aL400935566L
aL1409317L
aL10212486L
aL2239224L
aL257870231L
aL317426026L
aL311961539L
aL349784403L
aL636646213L
aL10478011L
aL279092825L
aL42110620L
aL851839502L
aL615182610L
aL268460114L
aL646378314L
aL219275623L
aL994938973L
aL268810272L
aL9788502L
aL285052108L
aL226127479L
aL256106782L
aL41462596L
aL104958593L
aL43684161L
aL16525914L
aL701785078L
aL288516736L
aL183383136L
aL299040L
aL309587669L
aL236655048L
aL10831179L
aL21909759L
aL36077051L
aL201176136L
aL193716064L
aL371420106L
aL338733769L
aL247731537L
aL576354168L
aL242844798L
aL958524802L
aL462194338L
aL793389360L
aL1159449057L
aL410821992L
aL1843349L
aL483861230L
aL240525501L
aL217931569L
aL257188613L
aL48783063L
aL40548528L
aL966519755L
aL14894604L
aL11626005L
aL501131551L
aL14586344L
aL546224153L
aL266975528L
aL27230013L
aL780634L
aL29357866L
aL30819890L
aL329158553L
aL6082848L
aL179763533L
aL17071782L
aL2723902L
aL987121331L
aL534154529L
aL366471550L
aL679225048L
aL1090543376L
aL278541328L
aL15896358L
aL366614953L
aL181471996L
aL1503338L
aL178524707L
aL15187213L
aL18338992L
aL186216660L
aL345686415L
aL12138535L
aL39029590L
aL394627264L
aL43134484L
aL26206389L
aL205064784L
aL44196467L
aL510829821L
aL533101637L
aL964693042L
aL30409956L
aL375487081L
aL235794992L
aL462870292L
aL891174L
aL711350640L
aL429623648L
aL242885792L
aL276918183L
aL1098072349L
aL22015766L
aL34956842L
aL386886697L
aL353369530L
aL30654953L
aL221632321L
aL260023512L
aL574686136L
aL286123329L
aL28991783L
aL6335212L
aL1034330588L
aL267201253L
aL202312504L
aL183997636L
aL229635047L
aL250554077L
aL267980836L
aL1037935030L
aL236094364L
aL315168073L
aL295102870L
aL222158309L
aL3047678L
aL29823353L
aL145715145L
aL145726038L
aL239001758L
aL29882400L
aL328033227L
aL183626299L
aL715012L
aL2091245L
aL28972151L
aL407709587L
aL702179021L
aL962494247L
aL289766538L
aL243418281L
aL327818710L
aL20675526L
aL10942864L
aL192341047L
aL638830569L
aL17117574L
aL699882454L
aL398962412L
aL185917L
aL30557536L
aL378321189L
aL12824389L
aL242473290L
aL269477208L
aL16163812L
aL43085004L
aL289246322L
aL16964657L
aL232068599L
aL27104642L
aL13042912L
aL42158677L
aL245149319L
aL21168814L
aL184744788L
aL212051690L
aL414224198L
aL217235438L
aL596209372L
aL1439464L
aL23066295L
aL523281141L
aL333611908L
aL223076992L
aL10527049L
aL2063646L
aL582223330L
aL29806114L
aL3260404L
aL24939036L
aL250317270L
aL1081424589L
aL205101252L
aL1076962L
aL262980866L
aL197273152L
aL38633088L
aL318400284L
aL26043630L
aL10696286L
aL28599026L
aL472822291L
aL228010470L
aL208585859L
aL232525682L
aL302258291L
aL37032677L
aL31624954L
aL36923069L
aL181486038L
aL24617943L
aL261375666L
aL13782488L
aL6361647L
aL603072994L
aL214309165L
aL298747747L
aL1332279L
aL352643699L
aL229920893L
aL13762092L
aL46778312L
aL4950230L
aL215442946L
aL409348607L
aL419337461L
aL4787395L
aL6829236L
aL763012L
aL30327734L
aL201423967L
aL178713677L
aL442610L
aL932064L
aL36236772L
aL3193116L
aL507888176L
aL261677586L
aL42557938L
aL1037414L
aL201565357L
aL187362778L
aL29629891L
aL17809741L
aL1045849L
aL181717048L
aL189454365L
aL203162893L
aL1752425L
aL220950080L
aL1625176L
aL1131737L
aL10260916L
aL176265856L
aL13033090L
aL14478736L
aL1063387321L
aL5512438L
aL2512527L
aL676668004L
aL286670356L
aL1105909086L
aL459356371L
aL273405335L
aL34665888L
aL349451967L
aL175717070L
aL241406587L
aL50974L
aL20324193L
aL277503844L
aL235501638L
aL33069533L
aL7070588L
aL3335209L
aL5817759L
aL29138037L
aL5345631L
aL15683808L
aL3494922L
aL9721645L
aL15297788L
aL43103459L
aL418741100L
aL324859665L
aL202338518L
aL550828490L
aL9388877L
aL348331476L
aL4671186L
aL20940059L
aL181028305L
aL287577235L
aL21704509L
aL258156523L
aL3433793L
aL671633949L
aL13038887L
aL338710798L
aL787647L
aL827869792L
aL197112075L
aL278598387L
aL1085266409L
aL13050163L
aL9367062L
aL1114363177L
aL225089388L
aL992186639L
aL303001369L
aL212420803L
aL258938202L
aL274009179L
aL514551060L
aL254219170L
aL242282756L
aL231217950L
aL219015986L
aL483225010L
aL200021290L
aL8731289L
aL308630219L
aL273368099L
aL16373001L
aL220824193L
aL472714184L
aL8767336L
aL302514375L
aL16962629L
aL20703961L
aL609040573L
aL10469096L
aL299244684L
aL523650084L
aL253079544L
aL687982L
aL627652271L
aL188390798L
aL15248933L
aL174581253L
aL220822778L
aL7935064L
aL252339312L
aL646069593L
aL38596296L
aL213211337L
aL184871595L
aL6197674L
aL38243298L
aL1426543L
aL190543183L
aL305100974L
aL49504256L
aL1142459103L
aL210289440L
aL528139753L
aL526827871L
aL15559104L
aL257644463L
aL23757538L
aL1006060288L
aL207280546L
aL34065976L
aL8278173L
aL12189013L
aL1103150428L
aL15610793L
aL36398993L
aL1092671384L
aL500071397L
aL22649296L
aL281259L
aL218666216L
aL600776517L
aL7976795L
aL43458820L
aL319580946L
aL381016954L
aL22937855L
aL423748911L
aL1115607L
aL219916366L
aL257933428L
aL484278090L
aL4229326L
aL209349429L
aL1087689635L
aL783721360L
aL989043323L
aL279475714L
aL208056249L
aL293935545L
aL256180142L
aL10430154L
aL2146538L
aL1117726744L
aL428969335L
aL632995738L
aL3911240L
aL196894326L
aL509139077L
aL1197844L
aL908782309L
aL325789612L
aL1569787L
aL396345105L
aL224286846L
aL406786522L
aL520901359L
aL5172774L
aL4743499L
aL14430583L
aL1028192246L
aL31872046L
aL48753112L
aL43718764L
aL317420591L
aL202413285L
aL263527721L
aL19377512L
aL404379247L
aL455594012L
aL13060630L
aL45938556L
aL330935200L
aL362820700L
aL784502983L
aL400844068L
aL231448645L
aL45526581L
aL18214536L
aL1135554855L
aL345772429L
aL13011520L
aL211260800L
aL3556088L
aL254080494L
aL2609555L
aL419197711L
aL1163730293L
aL25290531L
aL245073659L
aL319922511L
aL23296167L
aL52185188L
aL7571278L
aL1025991184L
aL618116450L
aL193447297L
aL47996019L
aL4767333L
aL953912941L
aL31230408L
aL28313194L
aL24972187L
aL217460636L
aL221632363L
aL190100882L
aL4475547L
aL742020955L
aL860761736L
aL183212462L
aL11479681L
aL336359944L
aL19151944L
aL559965674L
aL181690280L
aL174388310L
aL43492266L
aL270045722L
aL195948852L
aL201196216L
aL176276112L
aL29135425L
aL4802389L
aL2365162L
aL4814976L
aL3027950L
aL209966963L
aL2336684L
aL38154561L
aL627038445L
aL199576428L
aL332888740L
aL17540778L
aL545955831L
aL461907970L
aL359704459L
aL384608769L
aL23071249L
aL34003854L
aL21722368L
aL6158293L
aL207112389L
aL867407564L
aL23441299L
aL176967798L
aL862395661L
aL61143L
aL289091668L
aL477764709L
aL8720705L
aL21135696L
aL231632859L
aL90814L
aL196051144L
aL207235275L
aL510644829L
aL323148385L
aL494203608L
aL8739746L
aL8830286L
aL11154133L
aL231727975L
aL15261885L
aL7119275L
aL14068916L
aL821965201L
aL483047289L
aL916276430L
aL45488971L
aL253719294L
aL6139710L
aL198714729L
aL10379035L
aL547202351L
aL2943042L
aL345656188L
aL391670886L
aL187603374L
aL38324937L
aL39556624L
aL676101940L
aL235009381L
aL321807291L
aL1124107152L
aL3684053L
aL413340468L
aL232237555L
aL29863801L
aL423177L
aL201446647L
aL40551116L
aL1155816711L
aL473535553L
aL20937043L
aL566029206L
aL31018011L
aL4076037L
aL1005818280L
aL424689478L
aL10095858L
aL30324162L
aL5077595L
aL268177220L
aL237104883L
aL257176750L
aL190964680L
aL7122673L
aL8747032L
aL277683969L
aL558817208L
aL176472932L
aL38258659L
aL197657448L
aL43265571L
aL192195450L
aL188298480L
aL11754064L
aL8394765L
aL29868925L
aL282116744L
aL43945627L
aL343707L
aL2799096L
aL10488807L
aL43507111L
aL391426264L
aL1012441167L
aL222509240L
aL25589407L
aL32227036L
aL50278032L
aL275234405L
aL3737736L
aL1889660L
aL416698835L
aL403995993L
aL203315399L
aL38713203L
aL237370210L
aL630953L
aL978781621L
aL431004486L
aL145220178L
aL220626185L
aL173739759L
aL285864633L
aL405146553L
aL19625648L
aL50712214L
aL202519992L
aL21071855L
aL243397688L
aL347560868L
aL55152113L
aL248729036L
aL225188403L
aL611566770L
aL29204995L
aL8464453L
aL187783631L
aL206278524L
aL8847808L
aL38815749L
aL248820505L
aL10578001L
aL14054899L
aL36191691L
aL30381911L
aL55315678L
aL417231L
aL196726003L
aL401985545L
aL1111545669L
aL501004313L
aL413065593L
aL222554361L
aL259958266L
aL194655651L
aL204982705L
aL8287531L
aL1378186L
aL1127499159L
aL211800222L
aL963341L
aL4400879L
aL236073419L
aL35427193L
aL4789027L
aL873359639L
aL23075993L
aL862885L
aL346810258L
aL51745742L
aL9215783L
aL212493135L
aL25762570L
aL19781014L
aL7248350L
aL375667628L
aL527010621L
aL14956335L
aL217927886L
aL9987522L
aL1072543994L
aL202673116L
aL9817156L
aL8040668L
aL856605L
aL325591450L
aL6932365L
aL243189930L
aL5941896L
aL1102264631L
aL3387197L
aL9650910L
aL292135954L
aL851255134L
aL210426846L
aL401972573L
aL37557962L
aL37479277L
aL984288789L
aL202211224L
aL3535502L
aL2795020L
aL174985344L
aL403218019L
aL539068335L
aL30907708L
aL44202939L
aL3595594L
aL1260561L
aL668019120L
aL26065543L
aL19214273L
aL15817036L
aL10026712L
aL1081818L
aL7345251L
aL2563094L
aL30008589L
aL14426356L
aL496913968L
aL366527771L
aL390204020L
aL450831348L
aL302387543L
aL23772424L
aL619735535L
aL5564418L
aL55670774L
aL15903689L
aL487564420L
aL22965858L
aL1013239232L
aL470850555L
aL266584506L
aL26589916L
aL53658889L
aL31071147L
aL4042883L
aL18865597L
aL22522741L
aL242897609L
aL594522218L
aL344494034L
aL628431886L
aL497437116L
aL21771452L
aL209423072L
aL205000482L
aL32649838L
aL183624959L
aL212647984L
aL17060686L
aL226857649L
aL13872178L
aL143776681L
aL9162847L
aL398067729L
aL360599494L
aL352593353L
aL26127628L
aL17523811L
aL10562384L
aL13728569L
aL320128L
aL7778546L
aL288318272L
aL267457448L
aL218029771L
aL235140263L
aL14879220L
aL197256973L
aL30719557L
aL7489050L
aL220906023L
aL1103962996L
aL5920750L
aL648859056L
aL17220097L
aL260933986L
aL516102536L
aL18435159L
aL215274543L
aL13369825L
aL1322324L
aL192669353L
aL498917996L
aL48859297L
aL467704942L
aL282188356L
aL143888926L
aL218655103L
aL483000854L
aL331043316L
aL508525427L
aL14709918L
aL26617222L
aL2052484L
aL245265071L
aL306538129L
aL378878014L
aL42124949L
aL143718045L
aL257643121L
aL4806105L
aL211094076L
aL17920920L
aL356485888L
aL212882398L
aL28331066L
aL8466144L
aL435862850L
aL251994216L
aL271697706L
aL191035638L
aL1121838461L
aL264799606L
aL23269719L
aL19276867L
aL12261931L
aL1617371L
aL203589139L
aL555183216L
aL316932622L
aL276870214L
aL2781718L
aL485312435L
aL371477901L
aL308675602L
aL344173L
aL6795358L
aL25879469L
aL256740696L
aL26483073L
aL52131720L
aL462231987L
aL6538519L
aL674845440L
aL15827117L
aL1098979690L
aL176634953L
aL190729681L
aL23250809L
aL189271649L
aL7764368L
aL1073624360L
aL533544724L
aL290854552L
aL45315605L
aL491629502L
aL12553842L
aL176498219L
aL20679192L
aL4939481L
aL206652826L
aL3429612L
aL56137626L
aL323942975L
aL306923902L
aL178282948L
aL241583505L
aL15180438L
aL395315459L
aL818791L
aL295151033L
aL203286715L
aL27240793L
aL245222161L
aL1067527642L
aL706606486L
aL4945322L
aL188844528L
aL282845586L
aL404331056L
aL10911032L
aL1084747680L
aL26468401L
aL248048004L
aL308692983L
aL1142808002L
aL13866865L
aL454739548L
aL414825988L
aL5734497L
aL1091419214L
aL964064268L
aL3211812L
aL14675569L
aL146064147L
aL316767793L
aL217845454L
aL269472497L
aL47755609L
aL17340997L
aL174492566L
aL22053351L
aL3330200L
aL181090633L
aL10676294L
aL3513934L
aL237289140L
aL42095331L
aL4142526L
aL1404745L
aL327254805L
aL290688853L
aL17376751L
aL17411581L
aL187978863L
aL293354588L
aL12750438L
aL296287282L
aL198923539L
aL217382078L
aL17248678L
aL205257582L
aL20372754L
aL591087491L
aL389634218L
aL5984083L
aL4674751L
aL353708709L
aL240134153L
aL255299720L
aL256198655L
aL214594376L
aL144630876L
aL824620407L
aL183655368L
aL26708601L
aL32254417L
aL1120938009L
aL26012053L
aL5972985L
aL281849L
aL219131781L
aL237850354L
aL34970643L
aL5346425L
aL483098529L
aL651363405L
aL874032321L
aL9205215L
aL229243796L
aL279231338L
aL347686872L
aL12446157L
aL21677114L
aL3197435L
aL412937497L
aL387952527L
aL199392860L
aL279699395L
aL239848872L
aL19232554L
aL189881922L
aL201870359L
aL616541L
aL8334203L
aL497454133L
aL848557L
aL268603288L
aL283766841L
aL319263514L
aL917914433L
aL373845187L
aL1110780184L
aL51344663L
aL28826070L
aL539959797L
aL182503727L
aL935651276L
aL35584771L
aL316661740L
aL230466176L
aL1047753927L
aL337012561L
aL979159240L
aL272427597L
aL37321424L
aL232551998L
aL25707582L
aL433423443L
aL319290005L
aL184399047L
aL348516137L
aL2239331L
aL29107911L
aL187596597L
aL5639959L
aL295670108L
aL17215726L
aL41517111L
aL420734336L
aL289607516L
aL10296135L
aL10758349L
aL16088888L
aL268458505L
aL427163295L
aL353383439L
aL34705968L
aL644543795L
aL179438750L
aL304572660L
aL12998300L
aL145618672L
aL211274389L
aL561088L
aL503842328L
aL301948441L
aL4535583L
aL28679628L
aL49471519L
aL7613651L
aL20533738L
aL1089487501L
aL14781299L
aL698054606L
aL799700L
aL36446400L
aL236633515L
aL189520901L
aL3850636L
aL28013314L
aL314725338L
aL424092677L
aL1102270050L
aL990918813L
aL8332372L
aL26514553L
aL23645859L
aL12953728L
aL733872760L
aL24049721L
aL39893276L
aL218317952L
aL1106733L
aL54743416L
aL26613956L
aL470940943L
aL346781992L
aL1106541184L
aL302990640L
aL211660627L
aL45223753L
aL565669652L
aL47832659L
aL430706378L
aL239278788L
aL29875503L
aL35289685L
aL4863787L
aL270002014L
aL22125607L
aL431361672L
aL350243594L
aL1081545L
aL10398650L
aL176514212L
aL268003370L
aL11746575L
aL3539367L
aL186320L
aL39124682L
aL39861851L
aL6684077L
aL945329889L
aL228777275L
aL251075104L
aL466959280L
aL275192574L
aL1202542L
aL190519524L
aL434900L
aL20224132L
aL37697673L
aL350625323L
aL17171179L
aL254193845L
aL2922646L
aL25771811L
aL17919302L
aL6143341L
aL37545907L
aL47633161L
aL585091954L
aL12707870L
aL29849695L
aL228228825L
aL275191653L
aL9225286L
aL247247488L
aL337155228L
aL11948481L
aL199259555L
aL517815796L
aL865006379L
aL2137006L
aL22057814L
aL255748154L
aL1096262028L
aL2312895L
aL1092753140L
aL672888083L
aL274595513L
aL352174452L
aL12176301L
aL23940054L
aL14057813L
aL25986395L
aL21715651L
aL42263124L
aL26497471L
aL243947694L
aL55955061L
aL287243271L
aL5940324L
aL231199494L
aL553812797L
aL245113582L
aL34079076L
aL28129112L
aL512091735L
aL1130594320L
aL534413848L
aL342276710L
aL41523386L
aL398638405L
aL29264095L
aL144952023L
aL41047200L
aL998055428L
aL247261531L
aL1060627113L
aL238561002L
aL47458373L
aL257199009L
aL274254014L
aL294495823L
aL278333898L
aL41264085L
aL266904314L
aL53260709L
aL53306933L
aL46199124L
aL582927979L
aL453589962L
aL3036299L
aL225618379L
aL456501255L
aL653259790L
aL1157664908L
aL246609088L
aL356537276L
aL319048146L
aL181667955L
aL2877416L
aL409517756L
aL20926311L
aL207174660L
aL218944073L
aL488869076L
aL299259453L
aL369409612L
aL176101717L
aL292692576L
aL467914300L
aL19605L
aL190937425L
aL31981895L
aL487777328L
aL220508254L
aL13107408L
aL36470618L
aL813210356L
aL322042832L
aL396860014L
aL253258505L
aL288133506L
aL997215169L
aL198398306L
aL12696231L
aL284352276L
aL1039040531L
aL48199951L
aL145406075L
aL39188082L
aL1898311L
aL41254799L
aL248818743L
aL6068438L
aL3460127L
aL2610274L
aL240120L
aL404107818L
aL21131884L
aL281535523L
aL25507126L
aL12054492L
aL574439967L
aL23586064L
aL34066124L
aL282943705L
aL1150675634L
aL1091647697L
aL38500040L
aL214892935L
aL3656236L
aL42472551L
aL279382L
aL339239753L
aL1065246017L
aL467939L
aL723532259L
aL16867363L
aL22505154L
aL13723567L
aL175407124L
aL36943965L
aL30101623L
aL55796484L
aL27671451L
aL56171940L
aL1108926L
aL30977899L
aL231679138L
aL1800143L
aL586590518L
aL17036966L
aL4094720L
aL234890606L
aL242047938L
aL297090246L
aL10967416L
aL742470183L
aL1109270215L
aL185805888L
aL18106258L
aL603962546L
aL192794565L
aL232327057L
aL2555787L
aL362224391L
aL2802050L
aL19351645L
aL298518885L
aL184178846L
aL4794320L
aL13721409L
aL29103700L
aL41365251L
aL24058480L
aL225360857L
aL1747589L
aL215328389L
aL23011209L
aL1104930946L
aL665564334L
aL196062000L
aL178356351L
aL777698979L
aL1140896064L
aL1199763L
aL213605440L
aL811416L
aL208828011L
aL180684117L
aL184396322L
aL265073370L
aL479393235L
aL294289737L
aL286912426L
aL384206651L
aL236579894L
aL28438731L
aL481662480L
aL176684952L
aL16354682L
aL1109114993L
aL416688184L
aL178525127L
aL313608473L
aL184850439L
aL32039105L
aL1128409514L
aL1080077484L
aL253405181L
aL184916997L
aL213861933L
aL260872320L
aL1115093864L
aL27256095L
aL10195949L
aL18195468L
aL16628967L
aL285062921L
aL343625450L
aL35614673L
aL303339280L
aL1139706077L
aL324031649L
aL40573859L
aL215106199L
aL593566068L
aL143912907L
aL458521138L
aL13581333L
aL178617248L
aL846814981L
aL271445L
aL176686987L
aL4350535L
aL27871510L
aL40788031L
aL252070016L
aL365010244L
aL5799830L
aL289532315L
aL6802761L
aL18857511L
aL8415832L
aL21844663L
aL674270537L
aL203374915L
aL202254272L
aL240105271L
aL300529078L
aL187243485L
aL294456494L
aL271656603L
aL264385237L
aL206772328L
aL211788684L
aL266987044L
aL610829839L
aL497270918L
aL29295577L
aL35432600L
aL4292174L
aL39629548L
aL984384693L
aL54324194L
aL11949728L
aL235064852L
aL16182543L
aL12320517L
aL224603295L
aL861249115L
aL265267181L
aL203785668L
aL29543877L
aL47153005L
aL415587723L
aL444454558L
aL215934281L
aL7283999L
aL77031L
aL7540359L
aL351716L
aL881801L
aL31366789L
aL4835180L
aL343718002L
aL811081179L
aL23765360L
aL31934950L
aL30143855L
aL230154962L
aL845572951L
aL734576L
aL225794635L
aL9706807L
aL294548051L
aL2556885L
aL9982506L
aL3517900L
aL256005260L
aL264999373L
aL11749927L
aL243707750L
aL9395065L
aL51699284L
aL288729134L
aL1892405L
aL211255990L
aL143592757L
aL23628031L
aL855757686L
aL275190472L
aL35009783L
aL453387406L
aL1023931010L
aL49260230L
aL182622082L
aL54477873L
aL1087530894L
aL198411849L
aL6896015L
aL342874964L
aL18133206L
aL301067084L
aL6415490L
aL543941312L
aL177692002L
aL310330528L
aL845215232L
aL27114213L
aL687973301L
aL29902211L
aL44611467L
aL331080153L
aL1093238513L
aL1736482L
aL10448675L
aL283004417L
aL6685377L
aL478096068L
aL52039326L
aL190268089L
aL356467439L
aL1436653L
aL27455211L
aL47399795L
aL11770589L
aL197742523L
aL262405259L
aL851408625L
aL29303096L
aL5640483L
aL7785882L
aL50858814L
aL189467120L
aL228222443L
aL48522188L
aL1002337642L
aL258390979L
aL55377905L
aL650760495L
aL290054284L
aL48986720L
aL28236512L
aL25505380L
aL113525L
aL479733968L
aL46769219L
aL297919873L
aL201689002L
aL27406476L
aL20058043L
aL2876442L
aL432571L
aL197121655L
aL8185095L
aL215395442L
aL201408407L
aL8756333L
aL29777946L
aL50736919L
aL328292L
aL3375902L
aL6413320L
aL229482441L
aL384232912L
aL250337265L
aL982805767L
aL261835937L
aL30708830L
aL40529842L
aL277856169L
aL25496296L
aL45546589L
aL299763547L
aL272783245L
aL807951L
aL304348724L
aL945226982L
aL335309543L
aL237967450L
aL480983471L
aL53632469L
aL53447449L
aL281677934L
aL300005624L
aL33490881L
aL38437230L
aL29841744L
aL179706021L
aL11541139L
aL2450851L
aL42628558L
aL183966782L
aL11466293L
aL399147738L
aL6562613L
aL265877172L
aL4764808L
aL12950591L
aL290315666L
aL441638057L
aL196476594L
aL318261852L
aL247265879L
aL198912249L
aL1149273987L
aL375457033L
aL222241718L
aL12448085L
aL232052031L
aL239133205L
aL2456809L
aL9781153L
aL222258144L
aL642900928L
aL555498185L
aL958166L
aL1438848L
aL40721567L
aL7636356L
aL186093429L
aL10437507L
aL2336473L
aL26342563L
aL24346832L
aL1124295795L
aL50273910L
aL257051496L
aL51918802L
aL16589187L
aL189740400L
aL274295421L
aL145057625L
aL612538968L
aL198157535L
aL14350931L
aL39915622L
aL176854971L
aL39202354L
aL256196L
aL40618363L
aL4912137L
aL1155228713L
aL505615069L
aL228720823L
aL52417375L
aL334438739L
aL182602320L
aL273069516L
aL254082515L
aL17189500L
aL195134769L
aL298053864L
aL36039652L
aL208787106L
aL43151170L
aL53430632L
aL222106191L
aL194103249L
aL254967552L
aL1306310L
aL1396208L
aL523838772L
aL30113538L
aL1170332052L
aL11724549L
aL17531751L
aL11118582L
aL1070654904L
aL412943534L
aL1477271L
aL178976675L
aL5293366L
aL540703984L
aL27762938L
aL509671670L
aL30777079L
aL51703237L
aL397559025L
aL628110737L
aL36714492L
aL15209936L
aL1084682672L
aL202107194L
aL181496090L
aL224667689L
aL255325173L
aL304530880L
aL1038638698L
aL33937520L
aL670833775L
aL3625582L
aL514667648L
aL533316732L
aL846230901L
aL188887589L
aL326753489L
aL25221930L
aL1140579221L
aL235580517L
aL11639174L
aL25005549L
aL184173855L
aL239276373L
aL254596122L
aL4900990L
aL44012731L
aL256933020L
aL185605932L
aL17543216L
aL16713522L
aL180563765L
aL23087711L
aL1063190715L
aL217241548L
aL278380723L
aL260197L
aL16468076L
aL430793033L
aL1367099L
aL198918249L
aL293685014L
aL3034358L
aL25011022L
aL8806597L
aL174574578L
aL342809941L
aL332912312L
aL196368429L
aL27220790L
aL145830639L
aL790904071L
aL267057542L
aL383997343L
aL271647419L
aL2404257L
aL223851438L
aL617668853L
aL354185304L
aL300343941L
aL995023154L
aL1152982416L
aL25121076L
aL248366948L
aL340312119L
aL1148504L
aL788837417L
aL719420225L
aL54407360L
aL5991433L
aL414194057L
aL1044299158L
aL2536943L
aL33221822L
aL307585760L
aL576399096L
aL9840600L
aL480840703L
aL578706308L
aL414439562L
aL17799084L
aL201942843L
aL327162330L
aL452132745L
aL278024757L
aL208857789L
aL8718321L
aL45370152L
aL270589149L
aL51470537L
aL23959995L
aL18261042L
aL195290785L
aL1088564027L
aL7950591L
aL176332280L
aL193377274L
aL217761941L
aL54911569L
aL55681141L
aL337460949L
aL201689111L
aL36192345L
aL12975449L
aL257088526L
aL3117337L
aL370415388L
aL29576984L
aL18949685L
aL201856937L
aL251610587L
aL603528149L
aL223528302L
aL273067267L
aL232447509L
aL230939431L
aL17226221L
aL8241949L
aL441449132L
aL209887368L
aL603396031L
aL177738976L
aL24902107L
aL861407376L
aL205380253L
aL1056293508L
aL286749960L
aL339636664L
aL317705617L
aL378464233L
aL26543741L
aL249313204L
aL933446956L
aL959286L
aL4252907L
aL403406657L
aL596315460L
aL17856581L
aL214986277L
aL4374432L
aL226325728L
aL324896824L
aL311381715L
aL20814766L
aL11700486L
aL17448703L
aL205390L
aL492783342L
aL124440L
aL23265361L
aL21401222L
aL267098787L
aL1137590288L
aL255792333L
aL10505361L
aL18020751L
aL2679877L
aL223576299L
aL34829338L
aL805379835L
aL466963118L
aL11575958L
aL16029892L
aL34573782L
aL462433233L
aL9864402L
aL422696567L
aL176047415L
aL629047L
aL234467421L
aL190113134L
aL1668880L
aL293359651L
aL330896677L
aL258521L
aL28342132L
aL55752569L
aL30402267L
aL9606770L
aL229916663L
aL174838970L
aL2443798L
aL641499929L
aL364185098L
aL44670517L
aL311502826L
aL5556779L
aL236291774L
aL302836389L
aL202981741L
aL229273631L
aL201113674L
aL37667050L
aL2539491L
aL233475591L
aL952337522L
aL246217715L
aL6462688L
aL479220810L
aL310035839L
aL17401742L
aL16066728L
aL282205136L
aL616224897L
aL18601981L
aL376744216L
aL173765859L
aL330976329L
aL294720742L
aL465514645L
aL21792212L
aL22105184L
aL633403378L
aL734898713L
aL6711712L
aL180744036L
aL177582286L
aL342087327L
aL284328386L
aL197869169L
aL28642890L
aL237066590L
aL25039362L
aL182436864L
aL49997860L
aL271742218L
aL144888393L
aL22470L
aL1460393L
aL346546858L
aL7315838L
aL1051553L
aL426198181L
aL54308932L
aL4336006L
aL246699797L
aL28723492L
aL428125198L
aL246143100L
aL1130491109L
aL7701257L
aL232680125L
aL1104683180L
aL288724112L
aL489029650L
aL39139926L
aL48548783L
aL182425019L
aL226992431L
aL1146283894L
aL4162734L
aL216349920L
aL15275753L
aL15771009L
aL5339001L
aL179939119L
aL33962789L
aL48253990L
aL211644480L
aL251008614L
aL243291647L
aL13037443L
aL178519813L
aL229572927L
aL44241315L
aL225040036L
aL6395025L
aL973306231L
aL208941889L
aL1108748778L
aL21030880L
aL14031938L
aL3668473L
aL40851023L
aL6721141L
aL1106211239L
aL654936603L
aL16530365L
aL2216939L
aL42185279L
aL192374789L
aL312642213L
aL1145936511L
aL551295276L
aL17528420L
aL177399213L
aL6507956L
aL12641766L
aL14227330L
aL298698539L
aL30700796L
aL522601794L
aL185519046L
aL48771743L
aL181872325L
aL8356959L
aL189737776L
aL51171042L
aL259562497L
aL184202494L
aL376408003L
aL187462562L
aL343281679L
aL523957435L
aL216312021L
aL275097931L
aL50026507L
aL183253394L
aL209572499L
aL6276062L
aL178589023L
aL8718294L
aL18561930L
aL25020947L
aL37064078L
aL18635613L
aL221542235L
aL649046205L
aL20041586L
aL194229285L
aL54081819L
aL504357668L
aL611789430L
aL197517182L
aL308451839L
aL28987749L
aL200468481L
aL562379935L
aL203777203L
aL536198212L
aL216321434L
aL15173908L
aL18624572L
aL27576576L
aL234116074L
aL25779936L
aL29605052L
aL1092039553L
aL22461440L
aL7393401L
aL43474195L
aL7934598L
aL28823343L
aL246192321L
aL15454494L
aL21931343L
aL18045761L
aL9795833L
aL25443563L
aL387505874L
aL226455041L
aL344801021L
aL253597701L
aL191809104L
aL633571L
aL210691200L
aL29328383L
aL898817021L
aL214916131L
aL408709491L
aL16231740L
aL47460116L
aL381477469L
aL7508004L
aL959323L
aL173607166L
aL236645582L
aL27841389L
aL6430220L
aL221196186L
aL8745447L
aL955342659L
aL38603008L
aL248992790L
aL695810830L
aL480704383L
aL289021577L
aL317308532L
aL554407L
aL5885280L
aL1158310L
aL19386142L
aL318476657L
aL424138098L
aL518961555L
aL9662810L
aL1133450418L
aL31016467L
aL191401444L
aL418405383L
aL264016026L
aL29346906L
aL36990790L
aL188968772L
aL226865850L
aL410135816L
aL32081022L
aL19132461L
aL18987730L
aL401129303L
aL249426230L
aL634855611L
aL298227516L
aL588815466L
aL40533583L
aL9282265L
aL27833694L
aL1081797640L
aL360334788L
aL43071323L
aL17509501L
aL340167326L
aL215763460L
aL944156144L
aL330330961L
aL174385301L
aL30940175L
aL193162298L
aL994631596L
aL370679586L
aL254525875L
aL12907802L
aL832833863L
aL420840522L
aL250261993L
aL1042683792L
aL486199734L
aL1083917017L
aL10563897L
aL254000362L
aL52959161L
aL24908631L
aL34024087L
aL262359203L
aL2776293L
aL312173582L
aL13355881L
aL255860392L
aL779878160L
aL203968491L
aL12009378L
aL416777729L
aL20426444L
aL1087389110L
aL51757929L
aL215119535L
aL2151722L
aL185254342L
aL1069875808L
aL446316121L
aL318452060L
aL229844667L
aL5129311L
aL146182256L
aL986135189L
aL15185255L
aL1843901L
aL225614758L
aL215516766L
aL190588449L
aL643121153L
aL571604516L
aL194809L
aL304703124L
aL331025709L
aL816600100L
aL227324052L
aL364197900L
aL12905906L
aL205556430L
aL225080556L
aL301141657L
aL553901038L
aL341454574L
aL1133612053L
aL12224497L
aL211062716L
aL49827141L
aL330871476L
aL310889418L
aL208866261L
aL297074929L
aL283554783L
aL22081821L
aL190523674L
aL3641240L
aL210796939L
aL16326638L
aL29195742L
aL7543347L
aL250547189L
aL352339353L
aL372328693L
aL7059839L
aL40653716L
aL1069632619L
aL210800872L
aL19547893L
aL190232619L
aL13222697L
aL257001554L
aL180606432L
aL328824745L
aL1128570310L
aL646466461L
aL210926405L
aL32809128L
aL262794307L
aL27435130L
aL773328L
aL245116168L
aL29850415L
aL318280243L
aL490176899L
aL373020515L
aL437577547L
aL38616400L
aL313242796L
aL28290632L
aL271022084L
aL1102173652L
aL6558550L
aL646019822L
aL643023633L
aL276132688L
aL546191370L
aL247362983L
aL32137109L
aL560939231L
aL1137964172L
aL951928L
aL182407005L
aL486818735L
aL294464190L
aL15444839L
aL18092999L
aL13666762L
aL11701186L
aL246886669L
aL319111008L
aL5375864L
aL435779497L
aL273611684L
aL4564071L
aL7886374L
aL187356470L
aL7451035L
aL176609295L
aL243178468L
aL19761204L
aL16465978L
aL22346425L
aL21458105L
aL1152015034L
aL19475709L
aL1137715988L
aL335128020L
aL40808764L
aL574230725L
aL263554328L
aL278746003L
aL179034985L
aL2605054L
aL368644481L
aL32091469L
aL451837583L
aL307548872L
aL12217198L
aL332550483L
aL192513873L
aL256148917L
aL547178126L
aL23578267L
aL40630063L
aL460115242L
aL399171112L
aL196782757L
aL278384065L
aL285715491L
aL230986974L
aL1079682871L
aL8615024L
aL181576858L
aL322298664L
aL243071737L
aL17826679L
aL445608332L
aL194309851L
aL8721962L
aL4164405L
aL1115948912L
aL655125441L
aL542177190L
aL47526541L
aL12190824L
aL309013437L
aL259018827L
aL23197582L
aL494107416L
aL19255892L
aL28844247L
aL209403513L
aL907966530L
aL330363262L
aL295019249L
aL2756107L
aL409254488L
aL30645970L
aL205150910L
aL15636395L
aL30638169L
aL249500256L
aL457788203L
aL4800902L
aL6044883L
aL395568L
aL649428500L
aL5006312L
aL2151746L
aL198136372L
aL13720281L
aL250459888L
aL190295833L
aL16865176L
aL45332773L
aL6199049L
aL3938846L
aL3144877L
aL218316692L
aL2834719L
aL699832473L
aL251346051L
aL5462348L
aL4948610L
aL179552788L
aL26151579L
aL210345068L
aL28475923L
aL210811713L
aL6378117L
aL223468043L
aL6028485L
aL144416310L
aL10530487L
aL4075206L
aL227151562L
aL144672519L
aL47087L
aL28321695L
aL8130664L
aL26306395L
aL184038700L
aL26031979L
aL144596154L
aL183558669L
aL40997958L
aL5006L
aL1303303L
aL307554238L
aL262904151L
aL23771769L
aL173738890L
aL24966346L
aL598847709L
aL563469L
aL55670616L
aL175072357L
aL218723624L
aL366303034L
aL248679455L
aL352317951L
aL12990443L
aL191294449L
aL1081599807L
aL21609641L
aL18339808L
aL39437533L
aL253035607L
aL639945353L
aL22019131L
aL388147249L
aL279113321L
aL292592705L
aL3783444L
aL276177944L
aL54209808L
aL214933903L
aL25849349L
aL355843695L
aL47944877L
aL253172876L
aL569231477L
aL1137821010L
aL638524097L
aL27070970L
aL176139921L
aL657986945L
aL179836601L
aL16627947L
aL26480604L
aL261644371L
aL591306149L
aL351760104L
aL1096098350L
aL239789571L
aL219885027L
aL3396717L
aL196411918L
aL175550459L
aL904310124L
aL1049298210L
aL1007377L
aL5131628L
aL40512112L
aL6617550L
aL1083282801L
aL1054462067L
aL203257309L
aL1044647642L
aL1478998L
aL284509007L
aL319943015L
aL15637151L
aL235054608L
aL290074157L
aL965280968L
aL479443224L
aL18617406L
aL259919733L
aL1205267L
aL382736338L
aL15447642L
aL462371428L
aL45226828L
aL552481832L
aL24429225L
aL225184473L
aL595548576L
aL213882855L
aL46528589L
aL5464755L
aL14017603L
aL5779124L
aL176517517L
aL181790665L
aL5315104L
aL48994L
aL267454576L
aL213923445L
aL450389780L
aL516301365L
aL361535776L
aL303926191L
aL471281546L
aL37025529L
aL674944621L
aL287628L
aL10835401L
aL44610805L
aL368045825L
aL198178487L
aL198146545L
aL290081968L
aL285554369L
aL7394666L
aL228264971L
aL35767L
aL392215494L
aL185131427L
aL264370958L
aL45522985L
aL52542210L
aL314825678L
aL197191472L
aL270136342L
aL705598225L
aL15896356L
aL232137388L
aL6846115L
aL3351588L
aL23284336L
aL5550721L
aL30716227L
aL8034668L
aL89842L
aL246610986L
aL201625981L
aL50694413L
aL298172893L
aL39911548L
aL196885626L
aL210241262L
aL1110150473L
aL55719627L
aL52611159L
aL179807299L
aL41409979L
aL292087606L
aL24203870L
aL205884256L
aL1323293L
aL28232870L
aL495857959L
aL264497745L
aL243228269L
aL3438865L
aL206426766L
aL13198899L
aL31583553L
aL1004438176L
aL4232845L
aL48240036L
aL933447238L
aL44102390L
aL308084150L
aL415309959L
aL1145727330L
aL300968074L
aL33940414L
aL30385646L
aL212162032L
aL179066803L
aL1085245158L
aL329173734L
aL175108187L
aL308880463L
aL290816148L
aL510893385L
aL3317375L
aL346556L
aL587684518L
aL961638917L
aL578078025L
aL197661258L
aL625025890L
aL908433689L
aL197553720L
aL510428005L
aL333672113L
aL499164857L
aL30645224L
aL416248L
aL35387709L
aL302784612L
aL233535575L
aL35401616L
aL176516771L
aL282710401L
aL271375534L
aL10053925L
aL294137556L
aL376513554L
aL222741476L
aL232054875L
aL193488282L
aL253541946L
aL179426306L
aL10527735L
aL30073686L
aL47784776L
aL1045177743L
aL310185620L
aL349155954L
aL447302746L
aL31144979L
aL22070195L
aL266955308L
aL11276998L
aL2547958L
aL5152048L
aL376662245L
aL291168168L
aL34519675L
aL623711654L
aL11005663L
aL291985489L
aL591702880L
aL26020588L
aL210653524L
aL17450548L
aL429040863L
aL223491605L
aL490855199L
aL14335097L
aL189421596L
aL1906529L
aL1013037L
aL301087262L
aL244943311L
aL916198033L
aL984725375L
aL7600L
aL453931367L
aL276956902L
aL211341314L
aL3137488L
aL1008691659L
aL201369092L
aL214063661L
aL20253514L
aL175011866L
aL15414421L
aL24583376L
aL395009798L
aL313851L
aL19385882L
aL13324698L
aL174011324L
aL277211978L
aL275417885L
aL176002917L
aL47530144L
aL14000335L
aL2239784L
aL215385109L
aL195982774L
aL2262256L
aL56145773L
aL279411811L
aL22981132L
aL380094164L
aL18106245L
aL403330217L
aL8511564L
aL2211782L
aL26455674L
aL4802121L
aL336847274L
aL389879704L
aL535917223L
aL10371168L
aL249676910L
aL304681429L
aL183213148L
aL36410309L
aL289015216L
aL400089151L
aL15876918L
aL343847627L
aL9419987L
aL26692449L
aL254495962L
aL295659864L
aL544702215L
aL191980304L
aL305539622L
aL243007996L
aL954581371L
aL676991487L
aL3248223L
aL176344101L
aL24769452L
aL16189746L
aL543242867L
aL21819522L
aL10867996L
aL402390804L
aL266005332L
aL763719614L
aL410776153L
aL35723280L
aL45977328L
aL1091782580L
aL281788031L
aL186030345L
aL319691162L
aL27858961L
aL456368403L
aL53698102L
aL176872554L
aL40954973L
aL13738263L
aL274509860L
aL628276L
aL253078680L
aL37324731L
aL39108316L
aL15916319L
aL439013853L
aL17526297L
aL335087L
aL184979833L
aL4929721L
aL354045852L
aL939981024L
aL30017506L
aL8141044L
aL34656509L
aL246151833L
aL183315146L
aL642754427L
aL10307804L
aL25502842L
aL373743155L
aL10239125L
aL17553690L
aL402621290L
aL263465411L
aL16609505L
aL6858462L
aL145844239L
aL14050535L
aL459909200L
aL261295000L
aL5055249L
aL21029216L
aL3618035L
aL46610508L
aL189795704L
aL50120309L
aL262274224L
aL9530451L
aL436938322L
aL30098407L
aL39394819L
aL197605783L
aL578081742L
aL19366957L
aL46911096L
aL174461640L
aL295706029L
aL55763309L
aL45882582L
aL581327467L
aL198212725L
aL675042950L
aL25821676L
aL205550732L
aL215691486L
aL20547251L
aL19690654L
aL9376913L
aL267159767L
aL24395551L
aL258333916L
aL8138836L
aL347578863L
aL48972634L
aL245217498L
aL955454L
aL257236472L
aL215660428L
aL784534336L
aL22492636L
aL205072873L
aL41817869L
aL44643382L
aL35429040L
aL342529276L
aL253974292L
aL27674937L
aL249813055L
aL206709265L
aL348610787L
aL452970628L
aL2097520L
aL323425768L
aL27996934L
aL20949497L
aL417827380L
aL539484121L
aL334973769L
aL18251259L
aL247455050L
aL29384703L
aL294807880L
aL2668619L
aL212556175L
aL304498328L
aL4717774L
aL42125459L
aL511844411L
aL249994085L
aL438173066L
aL267679061L
aL42688816L
aL27558405L
aL143562037L
aL249650413L
aL6164791L
aL221395966L
aL275240693L
aL27315714L
aL263037291L
aL19107859L
aL242244763L
aL194376538L
aL191929472L
aL1051106452L
aL250393996L
aL55718028L
aL3770765L
aL183626274L
aL4315251L
aL13256421L
aL287526650L
aL27670072L
aL232684376L
aL14442820L
aL24914614L
aL330825316L
aL195740182L
aL393828575L
aL177010717L
aL470104199L
aL183737543L
aL417813291L
aL271124343L
aL21990538L
aL308046976L
aL221172684L
aL145055327L
aL27713145L
aL7912872L
aL259644615L
aL227493274L
aL16395971L
aL594126353L
aL964011L
aL26601654L
aL49003055L
aL511563359L
aL18888698L
aL356025803L
aL290877720L
aL448235828L
aL15545032L
aL543399912L
aL311236210L
aL47159224L
aL21543568L
aL18365019L
aL187369083L
aL226311131L
aL174802874L
aL185287049L
aL614265815L
aL27221051L
aL574083165L
aL222676657L
aL200964296L
aL42862178L
aL214783372L
aL8277149L
aL42819562L
aL34025579L
aL17971431L
aL1457927L
aL403330162L
aL249283996L
aL207704011L
aL55307510L
aL43426630L
aL375572345L
aL420983592L
aL6190153L
aL187603188L
aL5369653L
aL12595290L
aL12283450L
aL24904765L
aL231661050L
aL219866129L
aL424006826L
aL192462607L
aL4918826L
aL1012952273L
aL34025140L
aL9340539L
aL52899295L
aL267020259L
aL22806456L
aL180631882L
aL210235075L
aL801384L
aL317062399L
aL174451580L
aL1447610L
aL56029782L
aL38635899L
aL13338454L
aL54277071L
aL369121137L
aL23237949L
aL2273636L
aL35497590L
aL277247789L
aL14929418L
aL13830396L
aL232469710L
aL199728898L
aL1868033L
aL386324417L
aL272549840L
aL275225229L
aL231616680L
aL867444285L
aL27724754L
aL273587983L
aL806713350L
aL534585864L
aL500002038L
aL48069074L
aL280275487L
aL4177632L
aL224324268L
aL312104023L
aL319011142L
aL143919917L
aL47144080L
aL35511587L
aL8908446L
aL17016944L
aL184805220L
aL259875879L
aL367847966L
aL197782945L
aL1025239060L
aL308740641L
aL274140590L
aL201132595L
aL1131025538L
aL16358507L
aL286120914L
aL269801981L
aL15340749L
aL282532068L
aL4314360L
aL11358878L
aL456014053L
aL3286420L
aL3452798L
aL12522195L
aL408324609L
aL183401676L
aL32189598L
aL26789896L
aL52420561L
aL5120021L
aL182482302L
aL368563701L
aL175812504L
aL418343179L
aL69724L
aL6035256L
aL34243703L
aL417282704L
aL143815402L
aL804707L
aL249415836L
aL522426813L
aL14640582L
aL219283664L
aL830950036L
aL414200592L
aL262334896L
aL6576654L
aL3441243L
aL27124518L
aL39466498L
aL246526535L
aL239714186L
aL29229064L
aL245231824L
aL342326436L
aL32152275L
aL349560110L
aL221828179L
aL6011667L
aL1013465637L
aL40561898L
aL327684368L
aL16512507L
aL8426403L
aL314908575L
aL143733859L
aL302372308L
aL431728237L
aL208895773L
aL227404673L
aL21939607L
aL1134831900L
aL180017312L
aL47413948L
aL240509294L
aL52186695L
aL304877L
aL259515645L
aL279332530L
aL353095740L
aL438300055L
aL261464243L
aL407413988L
aL366098904L
aL55256829L
aL4553907L
aL856809985L
aL144445035L
aL971425707L
aL278609649L
aL1153831828L
aL306306860L
aL32159326L
aL258737801L
aL8610751L
aL3313949L
aL14663895L
aL247152674L
aL261013298L
aL362489611L
aL186558857L
aL183060915L
aL26453330L
aL513342181L
aL195548429L
aL199037632L
aL217669917L
aL179957372L
aL2158731L
aL177745550L
aL503872814L
aL843532781L
aL354674289L
aL52631971L
aL213564L
aL330658174L
aL1139406914L
aL717297529L
aL966966570L
aL398424982L
aL12483599L
aL2343463L
aL365865308L
aL24095508L
aL9649899L
aL281431648L
aL42640345L
aL11359260L
aL27465310L
aL20821497L
aL13436131L
aL431324615L
aL203656499L
aL13980671L
aL20295949L
aL558122305L
aL6849325L
aL476588175L
aL14913169L
aL19908967L
aL11399328L
aL353192836L
aL7546845L
aL9279846L
aL286916131L
aL349022849L
aL15876592L
aL713726565L
aL7839569L
aL1037602765L
aL21131611L
aL1151743844L
aL359776550L
aL666764785L
aL11048098L
aL40177836L
aL196998040L
aL266650781L
aL783879174L
aL8025081L
aL306702657L
aL20595691L
aL6989471L
aL207613330L
aL271748327L
aL183601773L
aL204922559L
aL1122265992L
aL206276461L
aL176325529L
aL2799029L
aL12311705L
aL17805089L
aL14090928L
aL429604454L
aL3447950L
aL2774188L
aL9218050L
aL23240501L
aL477596712L
aL43668993L
aL275506009L
aL458482151L
aL348721738L
aL278562297L
aL546218243L
aL421980710L
aL312070688L
aL326540419L
aL311163883L
aL198187275L
aL2759457L
aL1005833519L
aL302385727L
aL33995567L
aL30095424L
aL208172292L
aL47023836L
aL234497727L
aL273697780L
aL239105087L
aL144208504L
aL326877359L
aL1760851L
aL24490516L
aL19119321L
aL328821183L
aL18863780L
aL394332L
aL391897564L
aL175469110L
aL42540872L
aL12390630L
aL216132093L
aL390927753L
aL236267000L
aL2740237L
aL259420066L
aL1101989114L
aL565794401L
aL266428237L
aL997175522L
aL363670547L
aL28255372L
aL1009724L
aL594239L
aL268944893L
aL17982197L
aL404369650L
aL3574866L
aL28525398L
aL16595964L
aL1668935L
aL28709389L
aL228419917L
aL15204870L
aL230903787L
aL27985521L
aL213951830L
aL199754828L
aL202955421L
aL191927906L
aL198757502L
aL27780L
aL144892948L
aL42092913L
aL206127291L
aL3481002L
aL48449898L
aL279207554L
aL242517024L
aL233502369L
aL335652653L
aL928103L
aL18243979L
aL20800369L
aL183231050L
aL15739900L
aL226380981L
aL19474885L
aL4330885L
aL4497624L
aL490211538L
aL13761227L
aL8744380L
aL46514909L
aL12259306L
aL229917648L
aL8873051L
aL24152141L
aL6029141L
aL25796314L
aL195497531L
aL311311508L
aL187453034L
aL9370085L
aL4292312L
aL272283420L
aL11030563L
aL17395406L
aL643246399L
aL312869670L
aL299913426L
aL628242001L
aL1101539032L
aL48213930L
aL915577692L
aL2192717L
aL16657442L
aL18639388L
aL19353255L
aL1083367047L
aL318187364L
aL20264660L
aL24229300L
aL202949069L
aL472414015L
aL18942345L
aL400856062L
aL309652470L
aL248571705L
aL11612418L
aL364303700L
aL246277264L
aL595435677L
aL207703641L
aL13254328L
aL8634724L
aL227659331L
aL249252324L
aL311797575L
aL15774L
aL410156420L
aL398951266L
aL454611859L
aL22744143L
aL758060L
aL958318L
aL46023691L
aL15921401L
aL229858321L
aL513049188L
aL293480256L
aL210848365L
aL336437798L
aL12932384L
aL393722265L
aL209445837L
aL983028180L
aL291807617L
aL234459L
aL326410821L
aL237875989L
aL905577899L
aL332579836L
aL3476919L
aL15781582L
aL12491862L
aL308010939L
aL992642304L
aL334396582L
aL226244514L
aL248114874L
aL286711796L
aL41286220L
aL29105183L
aL196056896L
aL206461711L
aL32238547L
aL333570437L
aL11604646L
aL975113165L
aL234037322L
aL284539283L
aL228803942L
aL312308100L
aL317480806L
aL41615891L
aL224617804L
aL1860813L
aL7892448L
aL10268462L
aL396766438L
aL28579003L
aL184045735L
aL608437513L
aL653165633L
aL232300027L
aL214423870L
aL506765214L
aL584017954L
aL43771183L
aL1122772606L
aL486083895L
aL518024030L
aL280997152L
aL406251007L
aL1124174876L
aL31072591L
aL31417274L
aL379317734L
aL8154513L
aL6902105L
aL53790332L
aL241943727L
aL387201524L
aL206629166L
aL389652834L
aL2678320L
aL343251854L
aL222236097L
aL237936214L
aL480878150L
aL11708116L
aL765852177L
aL899918053L
aL55649194L
aL544445006L
aL307856244L
aL306802260L
aL1061064464L
aL20019736L
aL183796854L
aL318417049L
aL356240973L
aL195899455L
aL26116241L
aL452496805L
aL1004813621L
aL194816974L
aL177281419L
aL11062066L
aL32472748L
aL271218444L
aL144059749L
aL418089445L
aL143836748L
aL336562618L
aL15319736L
aL149023L
aL249301235L
aL3009238L
aL6112188L
aL501563889L
aL217899448L
aL372166483L
aL242889294L
aL32329825L
aL327830500L
aL13669178L
aL896464426L
aL19656046L
aL1114354520L
aL53757626L
aL43982883L
aL25628872L
aL279844090L
aL16110828L
aL553782327L
aL8245808L
aL10595539L
aL285614484L
aL23301292L
aL25490500L
aL19799193L
aL560119456L
aL292107999L
aL221633567L
aL13520915L
aL9295364L
aL193833009L
aL4239410L
aL287239078L
aL266892887L
aL254366783L
aL262629L
aL541673819L
aL622330570L
aL8078159L
aL391274767L
aL231692286L
aL294294831L
aL6631949L
aL1093790L
aL35584686L
aL41090212L
aL13361047L
aL145026796L
aL4705376L
aL41291626L
aL2524893L
aL268659982L
aL588319669L
aL959493L
aL535468679L
aL475204645L
aL209378183L
aL25124375L
aL363214240L
aL369297401L
aL208048941L
aL218582067L
aL16062743L
aL360173487L
aL486445793L
aL21074L
aL19349915L
aL21409462L
aL1005403770L
aL364858807L
aL475566689L
aL262609585L
aL201143013L
aL276835591L
aL182079040L
aL33941815L
aL229204792L
aL520287110L
aL49796777L
aL244469566L
aL280138385L
aL336246608L
aL270740281L
aL814634213L
aL302476089L
aL250242024L
aL1089862950L
aL263977032L
aL1091692306L
aL354057326L
aL38595654L
aL635602624L
aL5125582L
aL3219202L
aL201812594L
aL42483999L
aL309540719L
aL260506217L
aL28708266L
aL313034514L
aL51928700L
aL174575388L
aL1109334900L
aL684256L
aL184797749L
aL609077265L
aL218671820L
aL226564265L
aL231853704L
aL9176843L
aL1152329806L
aL453341447L
aL1683226L
aL325844637L
aL190534444L
aL218390300L
aL283716662L
aL30784515L
aL315091157L
aL205371636L
aL1126967286L
aL179476755L
aL5727730L
aL13495723L
aL52515492L
aL1758229L
aL405070444L
aL3221107L
aL6787860L
aL174048494L
aL29024534L
aL209428046L
aL3431801L
aL221355293L
aL7242362L
aL53734171L
aL328903440L
aL283679925L
aL1159367756L
aL989413468L
aL215488339L
aL3660761L
aL14406180L
aL387777994L
aL189755813L
aL42623077L
aL49478364L
aL236010510L
aL300120785L
aL246848377L
aL212329404L
aL236560897L
aL1021603804L
aL598275502L
aL250611407L
aL474875709L
aL216262902L
aL39155609L
aL21454700L
aL3745704L
aL44428208L
aL738150201L
aL186445995L
aL406511291L
aL427986780L
aL2474911L
aL24393925L
aL50428988L
aL12958413L
aL35377540L
aL253256390L
aL19492974L
aL373839835L
aL347899262L
aL286728687L
aL51429449L
aL455924979L
aL17873553L
aL15227709L
aL387287739L
aL2645513L
aL345094936L
aL264384759L
aL258295878L
aL46062707L
aL11608836L
aL144084580L
aL30681550L
aL189799106L
aL177234978L
aL715254527L
aL180883492L
aL989876006L
aL197128945L
aL51656088L
aL123108L
aL419918011L
aL199629357L
aL20286414L
aL254099582L
aL278358634L
aL268968521L
aL7748414L
aL317061195L
aL710126559L
aL204868102L
aL25701909L
aL191901099L
aL18373899L
aL16226654L
aL262467622L
aL270441298L
aL225089542L
aL22162237L
aL583287982L
aL12392771L
aL15243973L
aL19798855L
aL10888411L
aL594158891L
aL314795499L
aL20187904L
aL270773489L
aL30625170L
aL20595368L
aL568900187L
aL417072068L
aL31902188L
aL461167467L
aL207002252L
aL201536872L
aL34728757L
aL24689950L
aL267895647L
aL227831718L
aL238782608L
aL21666526L
aL6953260L
aL198446093L
aL468782L
aL29769623L
aL5865665L
aL613937326L
aL15872450L
aL248978436L
aL224007683L
aL285828650L
aL174575472L
aL924987091L
aL253530666L
aL343968933L
aL4866993L
aL13040029L
aL1409626L
aL318495877L
aL653353358L
aL303630217L
aL296341684L
aL236499112L
aL22839498L
aL793211L
aL330647311L
aL1944337L
aL3949616L
aL230403775L
aL375442311L
aL267987652L
aL980929538L
aL414209557L
aL213033957L
aL42455494L
aL889415353L
aL204031619L
aL196872505L
aL180635876L
aL196615705L
aL10555527L
aL9338770L
aL218536220L
aL40440983L
aL24666917L
aL28457681L
aL180636111L
aL225492194L
aL17023774L
aL30771098L
aL212479882L
aL4668445L
aL13263422L
aL510996107L
aL28494696L
aL55438130L
aL177479587L
aL234582940L
aL2437223L
aL15846838L
aL222545115L
aL436527567L
aL267911832L
aL5523062L
aL24734718L
aL43730456L
aL32633851L
aL1119533973L
aL290151014L
aL1050775951L
aL846168561L
aL790300108L
aL1093162877L
aL44477402L
aL317122551L
aL225524042L
aL235056218L
aL699840292L
aL458927987L
aL656432365L
aL891118499L
aL321073L
aL42172667L
aL5020620L
aL176557238L
aL41918350L
aL22303654L
aL655229L
aL20241454L
aL271743603L
aL296436241L
aL720773875L
aL303063302L
aL242135345L
aL29674568L
aL592310042L
aL180444051L
aL214623343L
aL11951524L
aL290035005L
aL19382581L
aL20175086L
aL1054852891L
aL11169398L
aL9002298L
aL40072870L
aL12410283L
aL29431510L
aL220199932L
aL22091896L
aL23788737L
aL197366083L
aL374472720L
aL244113900L
aL240466259L
aL20046806L
aL179882446L
aL375005549L
aL45226700L
aL987835703L
aL12011846L
aL606339626L
aL176964113L
aL6373456L
aL210750189L
aL11496480L
aL368546768L
aL13788860L
aL30972682L
aL363931134L
aL7773288L
aL11565791L
aL285462538L
aL181658596L
aL14546401L
aL517075193L
aL3836877L
aL25218148L
aL603595672L
aL276301L
aL240858474L
aL2982121L
aL637595517L
aL1137564458L
aL317230603L
aL314772871L
aL23538567L
aL294411940L
aL621905197L
aL366740033L
aL415951240L
aL51169102L
aL189757321L
aL218849217L
aL1077373L
aL200583281L
aL212706140L
aL1155124446L
aL1098244964L
aL5054647L
aL50140845L
aL30630663L
aL294577926L
aL23566804L
aL53668257L
aL1004128616L
aL221687250L
aL182165717L
aL14510902L
aL233768027L
aL664261111L
aL792112L
aL954191L
aL20364076L
aL5824428L
aL2292409L
aL181406712L
aL440998687L
aL274485615L
aL3033282L
aL39895540L
aL10984853L
aL18990925L
aL26459026L
aL326152063L
aL8311200L
aL1168898966L
aL399330686L
aL401815962L
aL43586655L
aL220506259L
aL6009031L
aL1065268513L
aL51102324L
aL978183605L
aL226954627L
aL276942472L
aL29821912L
aL278670066L
aL7673667L
aL21631604L
aL14820378L
aL368369138L
aL173634255L
aL288090827L
aL208138198L
aL243907049L
aL177506733L
aL264819122L
aL669773510L
aL288672354L
aL375580857L
aL520014359L
aL1066033706L
aL617998775L
aL292301462L
aL188980614L
aL202029158L
aL195965591L
aL211758846L
aL5327376L
aL234401299L
aL144989223L
aL8796065L
aL5800470L
aL183302190L
aL1077530L
aL9166101L
aL257013334L
aL195185374L
aL332739408L
aL187337926L
aL230814441L
aL12547737L
aL1815948L
aL831769535L
aL274106385L
aL274231897L
aL306430564L
aL345082067L
aL1048880360L
aL398800390L
aL623809547L
aL325165996L
aL215849008L
aL12016951L
aL177703054L
aL242397099L
aL736907446L
aL263911208L
aL579247609L
aL193042478L
aL35470440L
aL190290942L
aL547858576L
aL603674370L
aL834440L
aL29286255L
aL181172601L
aL293908521L
aL611347105L
aL563594L
aL355546616L
aL52736197L
aL39901570L
aL281321652L
aL180287213L
aL10769619L
aL35250868L
aL181286191L
aL23763600L
aL1081358492L
aL428422275L
aL336198495L
aL28444653L
aL184992072L
aL612413598L
aL259316974L
aL17544616L
aL272122108L
aL220402163L
aL566360401L
aL4425522L
aL16621493L
aL193185640L
aL13329300L
aL1093752677L
aL178203401L
aL1038834382L
aL15677410L
aL314736070L
aL202484148L
aL284699918L
aL329118676L
aL188101376L
aL20283420L
aL22082550L
aL2036609L
aL50160474L
aL183704611L
aL964795101L
aL295834236L
aL5894866L
aL1291634L
aL432852985L
aL144374786L
aL1014765995L
aL25846629L
aL363579329L
aL188822094L
aL41451628L
aL317007214L
aL256620581L
aL611787331L
aL667669623L
aL551816405L
aL453632090L
aL247409960L
aL375923116L
aL194875461L
aL244054467L
aL1099860671L
aL627049054L
aL309275442L
aL196555817L
aL216235918L
aL258419910L
aL413450309L
aL229782193L
aL406196734L
aL382692352L
aL732727045L
aL286735237L
aL15237025L
aL531192453L
aL215599080L
aL526925107L
aL44126962L
aL982720771L
aL1002099134L
aL14350240L
aL186863329L
aL191532387L
aL48430334L
aL146285600L
aL450204642L
aL2902702L
aL30738026L
aL317452783L
aL4761545L
aL201735463L
aL431567362L
aL11875277L
aL420844241L
aL15258986L
aL217441905L
aL218449372L
aL41432435L
aL249140192L
aL245163928L
aL12333860L
aL246194355L
aL514521066L
aL202342263L
aL263909959L
aL463570639L
aL35418214L
aL413924636L
aL2315152L
aL317421479L
aL410381877L
aL476364229L
aL290641782L
aL266957310L
aL352549937L
aL1368938L
aL335286470L
aL200624569L
aL270109351L
aL1152320910L
aL23087180L
aL215325345L
aL2442477L
aL3518044L
aL13702955L
aL13405825L
aL25354466L
aL3699279L
aL9978705L
aL246546172L
aL26328956L
aL301806886L
aL1757938L
aL30640183L
aL186487156L
aL175460759L
aL209085120L
aL14465012L
aL241606572L
aL224309151L
aL20460L
aL215143306L
aL223580355L
aL782580780L
aL1049189653L
aL275884995L
aL146145653L
aL263930434L
aL774081356L
aL302422148L
aL401746528L
aL186158653L
aL24573050L
aL17244933L
aL53371597L
aL411603066L
aL613193914L
aL174354298L
aL8452174L
aL453808872L
aL473794948L
aL243743459L
aL524640787L
aL8543165L
aL257865785L
aL27811739L
aL330222896L
aL19549850L
aL15727572L
aL28337897L
aL271255469L
aL12016556L
aL32095643L
aL312804770L
aL461751346L
aL6856675L
aL42023310L
aL50714329L
aL209247565L
aL644918837L
aL263834443L
aL11915187L
aL303655297L
aL190764294L
aL207730898L
aL195861703L
aL26290512L
aL262917015L
aL1123916664L
aL179026242L
aL182938631L
aL314732432L
aL308866015L
aL331676764L
aL266008640L
aL375391308L
aL362467492L
aL201599191L
aL26441746L
aL179273696L
aL283450177L
aL23399769L
aL12896797L
aL461554065L
aL55593414L
aL14136479L
aL349881739L
aL6263447L
aL443748543L
aL13314521L
aL186698265L
aL180153044L
aL827804946L
aL330718019L
aL906315159L
aL248663970L
aL354110094L
aL52574757L
aL372734751L
aL12274457L
aL12490634L
aL369681601L
aL43695525L
aL192689046L
aL144123927L
aL18343439L
aL240470748L
aL214902197L
aL464822254L
aL958819L
aL5276457L
aL313975949L
aL7447083L
aL343140188L
aL246272766L
aL29265898L
aL14696160L
aL2686364L
aL1012822978L
aL350049417L
aL344925L
aL386033756L
aL47784490L
aL175475755L
aL1143350450L
aL709538117L
aL17758522L
aL4531751L
aL199333939L
aL259825851L
aL532339945L
aL235033369L
aL1712834L
aL475503758L
aL37601602L
aL1145272905L
aL230331918L
aL50013054L
aL218717599L
aL221598468L
aL622679L
aL229322980L
aL230319883L
aL3286462L
aL372783090L
aL10187101L
aL233102818L
aL1801090L
aL9359231L
aL455420987L
aL3552250L
aL292677618L
aL13402223L
aL1136259919L
aL440557459L
aL4708214L
aL25727366L
aL224740591L
aL246170051L
aL224673054L
aL720070632L
aL507863137L
aL320537810L
aL190860007L
aL1110737985L
aL189770622L
aL44485715L
aL255799007L
aL441550611L
aL838153212L
aL332757238L
aL232253815L
aL424049261L
aL321422926L
aL271867890L
aL188267288L
aL7557904L
aL598336689L
aL342989808L
aL272376916L
aL362890515L
aL176516289L
aL28294012L
aL189879528L
aL195659063L
aL36891813L
aL506948863L
aL215296932L
aL145537080L
aL789149961L
aL583230844L
aL524263119L
aL25014930L
aL54821208L
aL191423677L
aL196834329L
aL220107888L
aL213695843L
aL34301758L
aL1071367234L
aL243800132L
aL20212567L
aL41727372L
aL12627846L
aL216029244L
aL50864824L
aL1139855218L
aL173799065L
aL268627438L
aL225404013L
aL424083315L
aL16177238L
aL367663351L
aL400031187L
aL231756905L
aL143879461L
aL628545721L
aL3839847L
aL340468927L
aL492083232L
aL206755417L
aL495576141L
aL176373056L
aL173767228L
aL10462727L
aL244708486L
aL1304744L
aL5209970L
aL440976290L
aL458709036L
aL701275949L
aL297355035L
aL279098320L
aL187969243L
aL184744060L
aL917096L
aL352503999L
aL39337981L
aL252532781L
aL49326786L
aL211165069L
aL321907428L
aL415910903L
aL11811235L
aL183733859L
aL260983581L
aL32799922L
aL391948224L
aL264129821L
aL1088606847L
aL2992660L
aL546019871L
aL40330721L
aL34606599L
aL3551806L
aL144261437L
aL13537767L
aL183630600L
aL2258315L
aL247536803L
aL275395697L
aL1119081218L
aL258017065L
aL198150314L
aL30896934L
aL204878503L
aL30745211L
aL195239527L
aL243651910L
aL2456160L
aL737358002L
aL310769223L
aL143608188L
aL943233766L
aL399987422L
aL1571925L
aL253676764L
aL28704031L
aL246724920L
aL25283014L
aL843191692L
aL11557473L
aL311950430L
aL298482140L
aL43445421L
aL284498109L
aL8363949L
aL325039577L
aL145419697L
aL336801560L
aL398854542L
aL211544133L
aL205233616L
aL43512217L
aL565253369L
aL546482491L
aL19639740L
aL294622565L
aL9574815L
aL5569788L
aL361095203L
aL15553802L
aL329567974L
aL5150206L
aL483089059L
aL5673872L
aL3415421L
aL22348529L
aL18569523L
aL339332918L
aL747537396L
aL1152096647L
aL8629088L
aL217476834L
aL363861974L
aL507162697L
aL50003717L
aL366477835L
aL196676288L
aL185114898L
aL182775854L
aL945694093L
aL268495756L
aL198102274L
aL270142123L
aL811085581L
aL7883507L
aL16250166L
aL10890135L
aL39327078L
aL211178787L
aL206320019L
aL815261216L
aL454798974L
aL30443660L
aL271374520L
aL27838850L
aL42221135L
aL845389110L
aL53536774L
aL8470058L
aL6556310L
aL256095855L
aL20419L
aL1462773L
aL5844198L
aL180126346L
aL13758468L
aL207737982L
aL248551507L
aL285435252L
aL1644875L
aL251012682L
aL44253384L
aL348316962L
aL888703836L
aL35513447L
aL472782284L
aL2516657L
aL686522L
aL2398610L
aL8152879L
aL476626781L
aL299589706L
aL244000001L
aL1220756L
aL649425783L
aL474309857L
aL450977L
aL16191324L
aL270897860L
aL177923559L
aL752263478L
aL255802120L
aL1016291705L
aL9732770L
aL489440456L
aL211251506L
aL311216301L
aL13342207L
aL1040204702L
aL317101587L
aL3931716L
aL20057596L
aL1167763034L
aL637910443L
aL47939568L
aL232748716L
aL36724300L
aL6026192L
aL29613566L
aL326088135L
aL9318758L
aL302790895L
aL310586119L
aL13189887L
aL286964886L
aL402384240L
aL545058380L
aL10390594L
aL221772790L
aL259906748L
aL184927610L
aL16342149L
aL233942342L
aL230481978L
aL373738502L
aL453796745L
aL17958090L
aL210295984L
aL200611006L
aL4841837L
aL27988196L
aL205761562L
aL520508864L
aL387361843L
aL240518427L
aL173949239L
aL251398858L
aL31531135L
aL703384463L
aL967996942L
aL271111462L
aL388773524L
aL288803030L
aL1092618057L
aL37513598L
aL18362159L
aL265674570L
aL30452482L
aL186514291L
aL33879818L
aL6297230L
aL197350848L
aL25065060L
aL30928201L
aL29124938L
aL1614422L
aL790191548L
aL16704827L
aL239990230L
aL515626494L
aL30140286L
aL21545717L
aL1008282733L
aL218775872L
aL20713622L
aL1280451L
aL1065612179L
aL358871603L
aL480717815L
aL174802647L
aL1104718619L
aL203132254L
aL353359025L
aL21447591L
aL304466434L
aL24980653L
aL4312625L
aL38310757L
aL194712127L
aL992507805L
aL2422936L
aL27920793L
aL264535167L
aL362949436L
aL186511038L
aL1045945L
aL246901719L
aL192556772L
aL469781715L
aL577391846L
aL518990819L
aL14746555L
aL1566779L
aL350118891L
aL20673794L
aL51609674L
aL32646199L
aL43052809L
aL431703472L
aL327498504L
aL7665136L
aL17651976L
aL328198503L
aL328404414L
aL5178519L
aL181791358L
aL405870002L
aL309966149L
aL144957840L
aL10567602L
aL248562665L
aL1029614278L
aL1112044651L
aL181049825L
aL263046205L
aL189757197L
aL358047139L
aL680282365L
aL22955120L
aL414628141L
aL596427473L
aL13779448L
aL1148319064L
aL239671135L
aL287487333L
aL403253906L
aL264621605L
aL392675987L
aL822463458L
aL1110449625L
aL50253061L
aL513067180L
aL265383926L
aL806281872L
aL248141539L
aL998266969L
aL47714593L
aL599144826L
aL51936205L
aL202442296L
aL278321L
aL17680355L
aL289103011L
aL213984342L
aL532968680L
aL757849323L
aL15808254L
aL1062888503L
aL804116L
aL867050172L
aL22341404L
aL247493447L
aL193008719L
aL214193250L
aL247644575L
aL649148121L
aL37479937L
aL788871611L
aL408486L
aL183693907L
aL202523677L
aL522288811L
aL26674391L
aL553377245L
aL3351995L
aL23680884L
aL198902418L
aL22715815L
aL389355854L
aL41979319L
aL516450667L
aL246107107L
aL350816059L
aL27710180L
aL1112757290L
aL974664283L
aL8591984L
aL1794522L
aL278901093L
aL234491825L
aL634976419L
aL177281365L
aL12648516L
aL531051836L
aL477687900L
aL287383970L
aL495338429L
aL426248299L
aL3114592L
aL845351229L
aL191518267L
aL580670871L
aL269463119L
aL24769094L
aL3237098L
aL322977391L
aL67546L
aL22840712L
aL1092596771L
aL36198418L
aL180441554L
aL694402650L
aL240055416L
aL229853321L
aL10486085L
aL167775L
aL182363204L
aL1079294L
aL311654917L
aL50216276L
aL578354401L
aL86700L
aL490763051L
aL288990751L
aL211799378L
aL20381801L
aL569139920L
aL499577017L
aL803963624L
aL3536748L
aL776502L
aL184978261L
aL1131426551L
aL243160234L
aL206895176L
aL338477383L
aL10844382L
aL211209296L
aL27711176L
aL159906L
aL5852935L
aL11961589L
aL29769601L
aL29126826L
aL187710863L
aL34785858L
aL36513399L
aL5226091L
aL17687712L
aL426412334L
aL40317699L
aL409251317L
aL26119092L
aL1112250882L
aL247098595L
aL1028347095L
aL372332068L
aL33440812L
aL46634966L
aL432772549L
aL234407762L
aL31030768L
aL691921971L
aL10250289L
aL280717624L
aL41616490L
aL178631875L
aL585882983L
aL228197047L
aL27270835L
aL715421237L
aL326748L
aL208209751L
aL970262197L
aL18157280L
aL296099859L
aL1148701538L
aL36079748L
aL895358636L
aL159405L
aL266380371L
aL40635350L
aL646925571L
aL6377421L
aL192323682L
aL311411223L
aL144660945L
aL275247600L
aL644002166L
aL3969509L
aL362706823L
aL839547382L
aL12996251L
aL369847185L
aL1620824L
aL24577620L
aL459701576L
aL295783353L
aL29613283L
aL50882747L
aL259914154L
aL306307184L
aL355212110L
aL1798452L
aL436129730L
aL23053609L
aL43179974L
aL1085314334L
aL238314616L
aL223990144L
aL550271105L
aL771157134L
aL299739953L
aL717173371L
aL1332828L
aL240643203L
aL279137989L
aL317537857L
aL358440469L
aL12090375L
aL13133419L
aL234441153L
aL623532297L
aL398964362L
aL285767278L
aL342748508L
aL48495374L
aL25705749L
aL683574415L
aL491919757L
aL307889699L
aL204378270L
aL460600995L
aL28446594L
aL143788602L
aL174085950L
aL432453691L
aL17233990L
aL460009026L
aL14115948L
aL998011053L
aL15233055L
aL25299928L
aL365341867L
aL489161937L
aL1103351841L
aL38406610L
aL380036977L
aL310571394L
aL536679176L
aL47257463L
aL506597918L
aL293230399L
aL55701062L
aL1111472584L
aL33211629L
aL297645649L
aL14175233L
aL469824622L
aL1119033845L
aL202678556L
aL768332791L
aL22849827L
aL1072190895L
aL280554422L
aL143808600L
aL290593250L
aL209694283L
aL197661356L
aL14658876L
aL12802197L
aL174183568L
aL200080275L
aL295524450L
aL246753745L
aL201441015L
aL1064966234L
aL989003868L
aL848520782L
aL37685177L
aL3051321L
aL48301909L
aL186940672L
aL3238982L
aL35968378L
aL316201136L
aL20129018L
aL514488055L
aL231804359L
aL31973000L
aL47660416L
aL372891228L
aL399840351L
aL223325125L
aL683467234L
aL1149369380L
aL6487870L
aL207108464L
aL51759097L
aL329036433L
aL759645L
aL38035910L
aL1059347L
aL186583660L
aL541386783L
aL904647203L
aL230147360L
aL1212042L
aL11971978L
aL1037777841L
aL36113708L
aL251159600L
aL45197820L
aL288780331L
aL764487L
aL342296103L
aL196008763L
aL307500348L
aL46912450L
aL1140240235L
aL28513488L
aL603216749L
aL21660544L
aL909833473L
aL497508663L
aL587464700L
aL701308353L
aL336457031L
aL230166613L
aL800150094L
aL22289265L
aL15239838L
aL1112359785L
aL23927718L
aL497068975L
aL1140778687L
aL433048038L
aL241816954L
aL289205392L
aL239710724L
aL1112736272L
aL304364693L
aL841090024L
aL1098736908L
aL326713L
aL1089786775L
aL501649482L
aL186021557L
aL175354413L
aL551482439L
aL462876260L
aL315557101L
aL18590394L
aL561868823L
aL23059573L
aL175783725L
aL3374992L
aL903205486L
aL7238967L
aL515007717L
aL11322186L
aL7485246L
aL394110913L
aL177777071L
aL48382660L
aL1137869929L
aL253126382L
aL286100876L
aL334063580L
aL144116907L
aL898561724L
aL2150175L
aL20465134L
aL32184922L
aL294231688L
aL210736929L
aL610611489L
aL4297085L
aL297830612L
aL677167098L
aL795373902L
aL326522938L
aL23682194L
aL243411575L
aL53012687L
aL13502071L
aL1148794532L
aL18399256L
aL368896352L
aL1636726L
aL212533499L
aL210218737L
aL1001571L
aL309489692L
aL597309504L
aL275491367L
aL269837287L
aL1170532989L
aL357207465L
aL312964018L
aL553609334L
aL318200021L
aL708435117L
aL391088928L
aL261379306L
aL531939955L
aL30960160L
aL335894804L
aL497096318L
aL293525328L
aL194895809L
aL28617690L
aL260457433L
aL430847610L
aL2452772L
aL919162754L
aL199152207L
aL479317674L
aL791158496L
aL529683849L
aL182584965L
aL987895759L
aL38287403L
aL835786L
aL18860534L
aL198044325L
aL1160286593L
aL16131166L
aL211655048L
aL334203200L
aL566014976L
aL199463779L
aL317829L
aL17328874L
aL601858170L
aL215302469L
aL47308375L
aL4666L
aL624895663L
aL183327043L
aL635083197L
aL1002267435L
aL358346843L
aL443937353L
aL1160720753L
aL117219L
aL10575812L
aL47088112L
aL24032720L
aL10953376L
aL44693219L
aL412260642L
aL296472441L
aL55240096L
aL175333984L
aL529533222L
aL1052276107L
aL206343673L
aL53672690L
aL32342929L
aL571764317L
aL210070L
aL18622611L
aL699388851L
aL484825031L
aL37246563L
aL239086240L
aL318916251L
aL610111773L
aL193637007L
aL2776074L
aL4758289L
aL22949337L
aL1134824633L
aL3841720L
aL302929956L
aL1094369771L
aL52939688L
aL179334695L
aL210195885L
aL52508550L
aL581101907L
aL36151912L
aL1012246982L
aL25896542L
aL1102262509L
aL553731506L
aL18745518L
aL45614860L
aL193548844L
aL1121360773L
aL212745204L
aL200057490L
aL240973937L
aL216288941L
aL16908892L
aL14145875L
aL1044959117L
aL404012149L
aL200483455L
aL384844166L
aL1033897323L
aL517780329L
aL368502900L
aL36659986L
aL1043099698L
aL35056662L
aL1134732533L
aL304397304L
aL226985728L
aL724663741L
aL1156684883L
aL14922825L
aL503514185L
aL992096502L
aL563140998L
aL1089846120L
aL216698337L
aL262525185L
aL430962496L
aL242682333L
aL247626653L
aL327215552L
aL196758605L
aL187966155L
aL40276875L
aL363194082L
aL482883305L
aL1029889456L
aL439698979L
aL23898017L
aL10339535L
aL357111232L
aL546138796L
aL341949362L
aL1096454604L
aL269946398L
aL198863769L
aL1144133683L
aL202062931L
aL1460024L
aL262434877L
aL251137624L
aL227715133L
aL396956399L
aL1146542389L
aL1162204155L
aL8924205L
aL285132970L
aL300661615L
aL340492758L
aL27925477L
aL408976042L
aL368869200L
aL176596273L
aL432729430L
aL263881078L
aL211684768L
aL381153199L
aL23965938L
a.