(lp0
L800211329L
aL263319767L
aL50360676L
aL509541512L
aL980517872L
aL24426830L
aL218556468L
aL340049743L
aL323985599L
aL11142457L
aL272893319L
aL6418960L
aL198365241L
aL642701061L
aL30265908L
aL229504049L
aL349518L
aL181142279L
aL11885285L
aL50861977L
aL341069742L
aL1088561378L
aL1118367947L
aL14282772L
aL54812896L
aL29566050L
aL198479250L
aL287219135L
aL179320218L
aL332723506L
aL22830024L
aL104967056L
aL217446715L
aL201561394L
aL10997012L
aL27280080L
aL34172251L
aL180885542L
aL43663059L
aL39481351L
aL4960667L
aL28772703L
aL209704205L
aL47865403L
aL212689185L
aL182232079L
aL18511116L
aL49261418L
aL199833517L
aL8755012L
aL8049461L
aL10432843L
aL247917748L
aL657061358L
aL702341237L
aL242431785L
aL212052376L
aL525381654L
aL394334262L
aL317555633L
aL287455173L
aL266151478L
aL53737872L
aL452342099L
aL269443470L
aL256548845L
aL276814664L
aL658019954L
aL23119983L
aL307953764L
aL876093L
aL202841355L
aL24601713L
aL195535775L
aL39250696L
aL317397453L
aL209059620L
aL451106154L
aL287905651L
aL268416626L
aL184608941L
aL482841457L
aL11942800L
aL244466370L
aL510299406L
aL280864410L
aL9162080L
aL304107534L
aL183241596L
aL490734970L
aL261668011L
aL252556131L
aL436101830L
aL563808930L
aL224666210L
aL49992644L
aL323988553L
aL992922074L
aL676978000L
aL236307544L
aL26268162L
aL21140892L
aL52920181L
aL217445969L
aL970233635L
aL718423087L
aL254580747L
aL215914495L
aL53600704L
aL23240399L
aL221834157L
aL18488099L
aL252158380L
aL261867273L
aL848144070L
aL339550872L
aL1097962749L
aL207993099L
aL9829852L
aL24990923L
aL29991142L
aL26921127L
aL365856886L
aL215762141L
aL53458009L
aL1044946870L
aL104895430L
aL30606763L
aL211769903L
aL352640199L
aL341016311L
aL223008713L
aL174537675L
aL434652740L
aL34805629L
aL46287790L
aL175468146L
aL1160895745L
aL438883694L
aL346402154L
aL248313337L
aL376734786L
aL247842951L
aL201841L
aL175807040L
aL209802545L
aL173725205L
aL994057995L
aL194782330L
aL9250462L
aL287318015L
aL222908666L
aL384598507L
aL308608269L
aL331800928L
aL321480825L
aL263925069L
aL29895546L
aL374589567L
aL1106590669L
aL197228624L
aL487322524L
aL9019803L
aL304057802L
aL218576402L
aL305428441L
aL11403974L
aL20131289L
aL353025270L
aL19821049L
aL29951748L
aL726904797L
aL241568877L
aL245824507L
aL498359230L
aL245790970L
aL10979711L
aL1136777876L
aL212723159L
aL12549406L
aL337836239L
aL229856554L
aL193850883L
aL323040621L
aL798396225L
aL534364360L
aL8420444L
aL38635188L
aL30973362L
aL309355564L
aL187473610L
aL632575831L
aL53365319L
aL183345880L
aL324915888L
aL302994533L
aL432306936L
aL258311167L
aL238102630L
aL290146922L
aL1089796612L
aL1656796L
aL255236379L
aL228148248L
aL271111462L
aL13321019L
aL266575427L
aL243924542L
aL49270784L
aL987952L
aL1029171827L
aL5584252L
aL784097848L
aL144976441L
aL2105480L
aL18067882L
aL294531322L
aL282861095L
aL218600732L
aL243203991L
aL752885803L
aL21871832L
aL321348552L
aL1009000617L
aL208502558L
aL237924766L
aL25580916L
aL241534733L
aL248338852L
aL425850117L
aL192044381L
aL9017277L
aL291228663L
aL498754817L
aL250596265L
aL328387523L
aL283906400L
aL1160677551L
aL389640733L
aL224445269L
aL193134975L
aL237700717L
aL230546619L
aL176109324L
aL316864620L
aL39938999L
aL9751474L
aL257005190L
aL224856307L
aL262857853L
aL42221164L
aL233522213L
aL18175444L
aL581236677L
aL53873624L
aL207570037L
aL461702972L
aL374153207L
aL964999540L
aL2329456L
aL225429290L
aL285004087L
aL9654027L
aL332929974L
aL269652129L
aL1074658L
aL270637587L
aL615462207L
aL719633097L
aL31664378L
aL16117687L
aL20801736L
aL3943488L
aL28878968L
aL34756654L
aL274249297L
aL54927661L
aL275212883L
aL603096138L
aL583141432L
aL574703755L
aL273398380L
aL24137680L
aL254473073L
aL356115916L
aL21507044L
aL853606276L
aL309877913L
aL187486256L
aL10827472L
aL196322134L
aL211506608L
aL21275275L
aL2876471L
aL32527269L
aL274110273L
aL27991323L
aL23919192L
aL294066606L
aL220024359L
a.