(lp0
L1503L
aL1939L
aL6460L
aL28654L
aL28999L
aL70987L
aL71448L
aL99605L
aL106726L
aL115285L
aL123701L
aL142080L
aL146753L
aL149795L
aL237860L
aL255571L
aL283159L
aL298912L
aL315461L
aL348723L
aL352931L
aL384367L
aL398021L
aL411078L
aL440863L
aL465426L
aL507322L
aL508165L
aL513519L
aL535776L
aL597103L
aL609504L
aL609570L
aL689735L
aL702088L
aL772439L
aL778256L
aL781894L
aL797507L
aL809811L
aL812802L
aL819983L
aL850925L
aL953452L
aL995414L
aL1070554L
aL1080920L
aL1081992L
aL1083919L
aL1199807L
aL1241820L
aL1247879L
aL1289440L
aL1367263L
aL1392886L
aL1419812L
aL1420496L
aL1452439L
aL1460204L
aL1473066L
aL1504650L
aL1518729L
aL1533423L
aL1602350L
aL1622572L
aL1632586L
aL1649537L
aL1706519L
aL1756812L
aL1827570L
aL1858841L
aL1947130L
aL2012311L
aL2019351L
aL2064475L
aL2069940L
aL2145894L
aL2177308L
aL2213994L
aL2251379L
aL2277968L
aL2295469L
aL2324168L
aL2332265L
aL2355951L
aL2383675L
aL2434162L
aL2436949L
aL2456809L
aL2460012L
aL2476931L
aL2496799L
aL2516657L
aL2524194L
aL2541651L
aL2547542L
aL2615392L
aL2628786L
aL2709599L
aL2774681L
aL2822102L
aL2837661L
aL2847440L
aL2870257L
aL2880881L
aL2884560L
aL2893031L
aL2983482L
aL2984027L
aL3004938L
aL3083769L
aL3115446L
aL3121910L
aL3139327L
aL3153556L
aL3165899L
aL3197463L
aL3237477L
aL3261125L
aL3284393L
aL3287694L
aL3306085L
aL3319630L
aL3320256L
aL3349039L
aL3357008L
aL3386312L
aL3415356L
aL3433595L
aL3465903L
aL3476556L
aL3487920L
aL3571244L
aL3601085L
aL3608899L
aL3621162L
aL3659082L
aL3665402L
aL3722134L
aL3776034L
aL3778852L
aL3791790L
aL3881274L
aL3913760L
aL3979617L
aL4000281L
aL4029907L
aL4048356L
aL4109912L
aL4112547L
aL4127289L
aL4142267L
aL4164681L
aL4171842L
aL4211272L
aL4216492L
aL4270638L
aL4294206L
aL4316353L
aL4383322L
aL4482956L
aL4621766L
aL4635019L
aL4669108L
aL4695911L
aL4698794L
aL4699675L
aL4761652L
aL4763141L
aL4784252L
aL4793022L
aL4820817L
aL4939991L
aL4980598L
aL4984078L
aL5000850L
aL5028010L
aL5104353L
aL5123543L
aL5133906L
aL5138466L
aL5168763L
aL5217997L
aL5250885L
aL5291871L
aL5295835L
aL5296139L
aL5306367L
aL5344950L
aL5351028L
aL5409839L
aL5459408L
aL5687743L
aL5717739L
aL5741149L
aL5759048L
aL5891196L
aL5902758L
aL5947813L
aL6076914L
aL6090893L
aL6102310L
aL6174023L
aL6196929L
aL6250312L
aL6252431L
aL6275961L
aL6330850L
aL6411217L
aL6432978L
aL6469161L
aL6472356L
aL6516591L
aL6584332L
aL6639375L
aL6665959L
aL6745181L
aL6776725L
aL6778571L
aL6823668L
aL6881859L
aL6917019L
aL6933384L
aL6961409L
aL7019180L
aL7023400L
aL7064447L
aL7183878L
aL7194388L
aL7232117L
aL7520190L
aL7545418L
aL7586625L
aL7599029L
aL7693730L
aL7725931L
aL7761349L
aL7765828L
aL7767809L
aL7768323L
aL7883146L
aL7884270L
aL7897410L
aL7902250L
aL7924658L
aL8003790L
aL8004819L
aL8026413L
aL8221472L
aL8262372L
aL8272872L
aL8281842L
aL8324527L
aL8328865L
aL8396888L
aL8442900L
aL8456728L
aL8497894L
aL8512783L
aL8592015L
aL8596327L
aL8609623L
aL8650802L
aL8662908L
aL8666115L
aL8710618L
aL8752367L
aL8755649L
aL8769618L
aL8826796L
aL8860332L
aL9081653L
aL9134611L
aL9177098L
aL9240966L
aL9480160L
aL9556850L
aL9600121L
aL9643956L
aL9659074L
aL9729396L
aL9759245L
aL9760050L
aL9792347L
aL9852565L
aL10141365L
aL10146710L
aL10173402L
aL10186106L
aL10207986L
aL10308932L
aL10318284L
aL10538804L
aL10595150L
aL10611657L
aL10645239L
aL10658112L
aL10693632L
aL10707784L
aL10718898L
aL10835435L
aL10835749L
aL10943720L
aL10980646L
aL11030038L
aL11096685L
aL11192213L
aL11198582L
aL11285394L
aL11298674L
aL11366974L
aL11420687L
aL11499680L
aL11548446L
aL11578481L
aL11646690L
aL11771563L
aL11784106L
aL11952914L
aL11996289L
aL12045162L
aL12167649L
aL12196696L
aL12381522L
aL12399792L
aL12451223L
aL12461995L
aL12496356L
aL12531792L
aL12601984L
aL12608716L
aL12706048L
aL12713321L
aL12744584L
aL12851885L
aL12922692L
aL12968147L
aL13008954L
aL13028612L
aL13067532L
aL13124082L
aL13135688L
aL13205144L
aL13314434L
aL13383870L
aL13497442L
aL13526782L
aL13560666L
aL13587286L
aL13592327L
aL13656916L
aL13667642L
aL13700773L
aL13769206L
aL13774147L
aL13789823L
aL13935556L
aL14075701L
aL14095033L
aL14161828L
aL14298411L
aL14299603L
aL14301238L
aL14347301L
aL14349733L
aL14358166L
aL14399935L
aL14408469L
aL14420369L
aL14431030L
aL14472257L
aL14503218L
aL14512867L
aL14546401L
aL14547271L
aL14577243L
aL14577409L
aL14578717L
aL14636103L
aL14658810L
aL14711920L
aL14841122L
aL14874339L
aL14874438L
aL14879476L
aL14968271L
aL15026606L
aL15060711L
aL15125679L
aL15183500L
aL15344892L
aL15425541L
aL15427368L
aL15445236L
aL15554340L
aL15679929L
aL15702896L
aL15789546L
aL15816625L
aL15888306L
aL15923442L
aL16004883L
aL16008865L
aL16009128L
aL16042532L
aL16068888L
aL16071965L
aL16078645L
aL16121147L
aL16153704L
aL16155258L
aL16166520L
aL16167231L
aL16239802L
aL16268899L
aL16382145L
aL16383622L
aL16476023L
aL16539806L
aL16601187L
aL16637073L
aL16675244L
aL16844504L
aL16850161L
aL16877282L
aL16895538L
aL16904916L
aL17034309L
aL17073559L
aL17112512L
aL17194920L
aL17215830L
aL17385462L
aL17428164L
aL17433924L
aL17552383L
aL17563068L
aL17621747L
aL17651725L
aL17720705L
aL17762342L
aL17877911L
aL17893923L
aL17913547L
aL18058467L
aL18058549L
aL18062537L
aL18092999L
aL18245442L
aL18249023L
aL18345763L
aL18439331L
aL18472255L
aL18473633L
aL18489267L
aL18549621L
aL18555375L
aL18713099L
aL18724688L
aL18904761L
aL18974549L
aL18981631L
aL19102885L
aL19192195L
aL19209547L
aL19258235L
aL19269698L
aL19346595L
aL19398735L
aL19463773L
aL19667199L
aL19676224L
aL19683049L
aL19763553L
aL19824860L
aL19889012L
aL19961315L
aL20017929L
aL20057487L
aL20172943L
aL20178421L
aL20201868L
aL20231167L
aL20244614L
aL20296177L
aL20421825L
aL20531868L
aL20599147L
aL20790715L
aL20802463L
aL20829623L
aL20837190L
aL20839898L
aL20875698L
aL20879757L
aL20921602L
aL20931513L
aL20937230L
aL21021937L
aL21050100L
aL21162976L
aL21305422L
aL21401941L
aL21543264L
aL21558507L
aL21636469L
aL21651742L
aL21684092L
aL21714928L
aL21778408L
aL21788572L
aL21808055L
aL21900629L
aL21903091L
aL21993245L
aL22033702L
aL22056506L
aL22158432L
aL22278526L
aL22351967L
aL22481154L
aL22496425L
aL22509016L
aL22509681L
aL22514748L
aL22570204L
aL22572362L
aL22615288L
aL22679178L
aL22690928L
aL22713914L
aL22868652L
aL22874908L
aL22942917L
aL23149217L
aL23275886L
aL23287888L
aL23358362L
aL23388125L
aL23534942L
aL23538596L
aL23667939L
aL23776222L
aL23809789L
aL23844375L
aL23922736L
aL23962525L
aL24040829L
aL24045441L
aL24052784L
aL24103245L
aL24234274L
aL24262722L
aL24310739L
aL24311417L
aL24358078L
aL24367027L
aL24639393L
aL24699585L
aL24724294L
aL24763853L
aL24844136L
aL24896305L
aL24946451L
aL24991413L
aL25018566L
aL25190958L
aL25231597L
aL25312791L
aL25359198L
aL25379178L
aL25400007L
aL25446136L
aL25459975L
aL25476792L
aL25489565L
aL25495329L
aL25515588L
aL25525015L
aL25533907L
aL25920289L
aL25988538L
aL25998254L
aL26000485L
aL26048196L
aL26118910L
aL26141809L
aL26158590L
aL26196465L
aL26198848L
aL26287106L
aL26425029L
aL26479086L
aL26493709L
aL26597226L
aL26615104L
aL26635413L
aL26664810L
aL26698007L
aL26698637L
aL26734168L
aL26735127L
aL26931821L
aL27053031L
aL27069284L
aL27072376L
aL27145007L
aL27249591L
aL27313586L
aL27455885L
aL27493937L
aL27568436L
aL27701375L
aL27719825L
aL27730727L
aL27738429L
aL27865121L
aL27944353L
aL27982783L
aL28001197L
aL28011357L
aL28058699L
aL28101266L
aL28109655L
aL28159373L
aL28274945L
aL28300298L
aL28301008L
aL28414861L
aL28624213L
aL28629777L
aL28674402L
aL28739541L
aL28871080L
aL28887546L
aL28897114L
aL28951359L
aL29011744L
aL29133716L
aL29153132L
aL29171198L
aL29290713L
aL29299849L
aL29348155L
aL29383858L
aL29498424L
aL29590206L
aL29607606L
aL29734583L
aL29781815L
aL29824542L
aL29874854L
aL29894568L
aL30023592L
aL30079998L
aL30190790L
aL30290590L
aL30303449L
aL30417301L
aL30451078L
aL30576548L
aL30603788L
aL30609921L
aL30621380L
aL30632687L
aL30658916L
aL30661786L
aL30785413L
aL30813574L
aL30955054L
aL30972602L
aL30979807L
aL31010117L
aL31026038L
aL31052926L
aL31101872L
aL31266241L
aL31276899L
aL31306177L
aL31415667L
aL31478653L
aL31481725L
aL31981025L
aL32090005L
aL32098672L
aL32103988L
aL32195969L
aL32386830L
aL32548895L
aL32596652L
aL32666479L
aL32667485L
aL32780298L
aL32956366L
aL33055550L
aL33113888L
aL33177473L
aL33181075L
aL33232652L
aL33233426L
aL33339466L
aL33347128L
aL33410664L
aL33411678L
aL33490901L
aL33608062L
aL33923565L
aL33968974L
aL34009588L
aL34379029L
aL34641687L
aL34646560L
aL34655515L
aL34778627L
aL34955916L
aL35289244L
aL35338168L
aL35345833L
aL35494386L
aL35628745L
aL35694237L
aL35871320L
aL35872587L
aL36259264L
aL36482751L
aL36492007L
aL36947809L
aL36980968L
aL37151101L
aL37348023L
aL37434236L
aL37688390L
aL37897190L
aL37962180L
aL38100166L
aL38452861L
aL38507162L
aL38602905L
aL38653715L
aL38740427L
aL38783508L
aL38818625L
aL38932174L
aL39029590L
aL39194289L
aL39254439L
aL39316612L
aL39434314L
aL39582479L
aL39855714L
aL40073898L
aL40111368L
aL40120060L
aL40165609L
aL40251925L
aL40679158L
aL40954288L
aL41303578L
aL41370900L
aL41398597L
aL41603511L
aL41686906L
aL41995789L
aL42065642L
aL42148463L
aL42523523L
aL42545722L
aL42609632L
aL42827743L
aL43134846L
aL43211751L
aL43492282L
aL43527035L
aL43552310L
aL43572987L
aL43626822L
aL43673725L
aL43968627L
aL43986807L
aL44105840L
aL44140251L
aL44192920L
aL44271026L
aL44396126L
aL44457850L
aL44490684L
aL44557201L
aL44651486L
aL44923152L
aL45010633L
aL45196520L
aL45330166L
aL45396065L
aL45429657L
aL45559595L
aL45728581L
aL45961076L
aL46114112L
aL46182201L
aL46520675L
aL46546533L
aL46684215L
aL46685554L
aL46780682L
aL46817758L
aL46839874L
aL47354945L
aL47753516L
aL47775034L
aL47824371L
aL47907520L
aL48306153L
aL48309900L
aL48506507L
aL48797611L
aL48858317L
aL49222640L
aL49358285L
aL49491041L
aL49514638L
aL49782303L
aL49843130L
aL49874955L
aL49984009L
aL50024425L
aL50048952L
aL50221050L
aL50222314L
aL50354894L
aL50398433L
aL50467863L
aL50668823L
aL50728342L
aL51486928L
aL51488223L
aL51710064L
aL51915365L
aL51977508L
aL51984324L
aL51987407L
aL52046909L
aL52071695L
aL52186507L
aL52371552L
aL52601862L
aL52903045L
aL52930259L
aL52977667L
aL53220161L
aL53236785L
aL53240664L
aL53245585L
aL53252750L
aL53262301L
aL53363550L
aL53732312L
aL53990853L
aL54071557L
aL54071586L
aL54083076L
aL54092804L
aL54106735L
aL54145126L
aL54351357L
aL54358140L
aL54489149L
aL54680767L
aL54808414L
aL54861341L
aL55024047L
aL55104731L
aL55127116L
aL55386379L
aL55392803L
aL55658962L
aL55730170L
aL55956659L
aL104891962L
aL104972921L
aL143827867L
aL143890795L
aL143919917L
aL143944431L
aL144411118L
aL144412851L
aL144463624L
aL144631160L
aL144684941L
aL144714624L
aL144942551L
aL144987890L
aL145018023L
aL145021765L
aL145305168L
aL145333484L
aL145395190L
aL145468650L
aL145598672L
aL145719920L
aL145870624L
aL145878666L
aL145976611L
aL146038283L
aL146145765L
aL146180285L
aL173646967L
aL173676549L
aL173693177L
aL173753403L
aL173976753L
aL173991382L
aL174321256L
aL174374590L
aL174393115L
aL174600301L
aL174628060L
aL174780080L
aL174889490L
aL175647508L
aL175778280L
aL175795802L
aL175797797L
aL175798002L
aL175837112L
aL175910662L
aL176050857L
aL176125105L
aL176143820L
aL176172618L
aL176234997L
aL176263398L
aL176286716L
aL176452157L
aL176467255L
aL176494409L
aL176648865L
aL176857234L
aL176960149L
aL177409614L
aL177413751L
aL177746539L
aL177750565L
aL178021049L
aL178145625L
aL178159622L
aL178206625L
aL178212889L
aL178324521L
aL178429514L
aL178503220L
aL178560940L
aL178633814L
aL178637354L
aL178875176L
aL179261046L
aL179278379L
aL179312919L
aL179327153L
aL179441310L
aL179638466L
aL179638981L
aL179710465L
aL179899276L
aL180025196L
aL180662395L
aL180699880L
aL180843202L
aL181092545L
aL181467449L
aL181541233L
aL181672749L
aL181882085L
aL181906011L
aL182050291L
aL182119427L
aL182149097L
aL182217891L
aL182307557L
aL182374754L
aL182398367L
aL182475534L
aL182496956L
aL182760245L
aL182866614L
aL183013659L
aL183182123L
aL183188784L
aL183340468L
aL183401676L
aL183647575L
aL183736084L
aL183755468L
aL183886184L
aL184023738L
aL184040725L
aL184055801L
aL184102603L
aL184162582L
aL184233896L
aL184296961L
aL184358807L
aL184693704L
aL184862928L
aL184988584L
aL185083858L
aL185249913L
aL185296728L
aL185614099L
aL185781304L
aL185931738L
aL185934413L
aL186097388L
aL186209543L
aL186264582L
aL186349275L
aL186377549L
aL186466782L
aL186483038L
aL186574759L
aL186613299L
aL186616901L
aL186678638L
aL186912744L
aL187198316L
aL187254569L
aL187263013L
aL187389886L
aL187426542L
aL187591530L
aL187670741L
aL188020723L
aL188233452L
aL188253137L
aL188268512L
aL188962296L
aL189017293L
aL189027890L
aL189452264L
aL189737776L
aL189765565L
aL189792593L
aL189869791L
aL190316476L
aL190326946L
aL190394272L
aL190470556L
aL190509141L
aL190511894L
aL190523052L
aL190598087L
aL190599155L
aL190614027L
aL190634949L
aL190864110L
aL190874239L
aL191032524L
aL191269388L
aL191280116L
aL191355182L
aL191461000L
aL191683183L
aL191766760L
aL191794058L
aL191802371L
aL191819455L
aL191827457L
aL191868196L
aL191901713L
aL192179519L
aL192641443L
aL192674090L
aL192802419L
aL193040529L
aL193151486L
aL193298155L
aL193661581L
aL193690626L
aL193737111L
aL193767130L
aL194133780L
aL194163196L
aL194172596L
aL194223269L
aL194518417L
aL194904509L
aL195082596L
aL195168204L
aL195178643L
aL195508684L
aL195559684L
aL195618109L
aL195696785L
aL195724508L
aL195816254L
aL195915483L
aL195956040L
aL196281461L
aL196701408L
aL196723613L
aL196755168L
aL196835369L
aL196870199L
aL197468899L
aL197480777L
aL197567948L
aL197673149L
aL197715606L
aL197968747L
aL198440067L
aL198452403L
aL198494523L
aL198738009L
aL198800662L
aL198807539L
aL198885622L
aL198993766L
aL199439945L
aL199595362L
aL199690925L
aL199761180L
aL199861414L
aL200097646L
aL200228795L
aL200242761L
aL200286330L
aL200305142L
aL200512647L
aL200540417L
aL200618492L
aL201436140L
aL201499007L
aL201582735L
aL201641287L
aL201739192L
aL201803072L
aL201875179L
aL201895729L
aL202002985L
aL202068089L
aL202077956L
aL202192672L
aL202303558L
aL202320597L
aL202339954L
aL202453531L
aL202533425L
aL202674325L
aL202800568L
aL202847795L
aL203193590L
aL203244105L
aL203748430L
aL203844050L
aL204032304L
aL204332851L
aL204478834L
aL204478936L
aL204483620L
aL204620584L
aL204624658L
aL204627251L
aL204639785L
aL204665432L
aL204833891L
aL204933206L
aL205108613L
aL205257582L
aL205386691L
aL205442759L
aL205524634L
aL205613163L
aL205673636L
aL205908430L
aL206147231L
aL206231983L
aL206317432L
aL206341467L
aL206355439L
aL206462162L
aL206467916L
aL206471919L
aL206609454L
aL206681376L
aL206770825L
aL206942204L
aL206966893L
aL207116791L
aL207560167L
aL207561410L
aL207619994L
aL207690990L
aL207781046L
aL208143004L
aL208371115L
aL208381124L
aL208434690L
aL208488610L
aL208568219L
aL208950345L
aL208981840L
aL209251463L
aL209348364L
aL209404825L
aL209784760L
aL209885924L
aL210004786L
aL210028113L
aL210391827L
aL210406153L
aL210450025L
aL210667089L
aL210802957L
aL210820617L
aL211004601L
aL211094076L
aL211191301L
aL211235334L
aL211345658L
aL211396144L
aL211618265L
aL211986260L
aL212016738L
aL212132228L
aL212163073L
aL212190759L
aL212203417L
aL212344678L
aL212606990L
aL213002126L
aL213008458L
aL213097780L
aL213106820L
aL213173386L
aL213185783L
aL213216934L
aL213262191L
aL213470483L
aL213474086L
aL213685144L
aL213826428L
aL213977549L
aL213993903L
aL214202176L
aL214234054L
aL214287679L
aL214451906L
aL214497938L
aL214499491L
aL214514727L
aL214686687L
aL214743460L
aL214810330L
aL214884994L
aL214959146L
aL215033222L
aL215092289L
aL215161493L
aL215519979L
aL215810982L
aL216045151L
aL216097385L
aL216158349L
aL216188993L
aL216427400L
aL216776900L
aL216913512L
aL216985544L
aL217065965L
aL217218265L
aL217231616L
aL217240837L
aL217343988L
aL217436728L
aL217743794L
aL217745009L
aL217837360L
aL218184536L
aL218244833L
aL218249938L
aL218319190L
aL218556159L
aL218567202L
aL218573923L
aL218709480L
aL218789354L
aL219380942L
aL219381437L
aL219634828L
aL219829916L
aL220172946L
aL220288616L
aL220311376L
aL220494938L
aL220717401L
aL220748100L
aL220748324L
aL220964944L
aL221129316L
aL221211014L
aL221231552L
aL221362763L
aL221657340L
aL221782217L
aL222215747L
aL222223416L
aL222283635L
aL222444868L
aL222637166L
aL222641199L
aL222987321L
aL223103374L
aL223251424L
aL223467624L
aL223508635L
aL223607113L
aL223926024L
aL223938116L
aL223986767L
aL224017251L
aL224064199L
aL224231140L
aL224314552L
aL224424025L
aL224453778L
aL224590620L
aL224677809L
aL224854911L
aL224955265L
aL225165643L
aL225309163L
aL225347152L
aL225433655L
aL225443915L
aL225522890L
aL225530101L
aL225906735L
aL225913612L
aL226166258L
aL226430941L
aL226491859L
aL226508708L
aL226549919L
aL226584273L
aL226870385L
aL227370124L
aL227490355L
aL227690286L
aL227831465L
aL227877371L
aL228160117L
aL228191695L
aL228195124L
aL228487354L
aL228659754L
aL228720587L
aL228773725L
aL228899626L
aL229312169L
aL229396978L
aL229401969L
aL229569400L
aL229576286L
aL229647536L
aL229679137L
aL229802725L
aL229837831L
aL230172925L
aL230218939L
aL230474707L
aL230581638L
aL230585107L
aL230658124L
aL230881989L
aL230888107L
aL231011577L
aL231187274L
aL231281146L
aL231468644L
aL231629859L
aL231654426L
aL231703141L
aL231799966L
aL232205410L
aL232493453L
aL232509422L
aL232527060L
aL232530423L
aL232532301L
aL232546733L
aL232559846L
aL232655276L
aL232724147L
aL232908621L
aL232971613L
aL233016616L
aL233175365L
aL233310798L
aL233456642L
aL233486572L
aL233493374L
aL233548113L
aL233650201L
aL233709420L
aL234018652L
aL234143357L
aL234146047L
aL234172535L
aL234430174L
aL234468410L
aL234531023L
aL234535231L
aL234878695L
aL235099402L
aL235268301L
aL235290641L
aL235333153L
aL235452562L
aL235772092L
aL236105815L
aL236182123L
aL236239908L
aL236576827L
aL236676871L
aL236847783L
aL236855948L
aL236934636L
aL237063553L
aL237076048L
aL237204630L
aL237435960L
aL237801469L
aL237896714L
aL237937050L
aL238107386L
aL238943236L
aL239415712L
aL239555017L
aL240048317L
aL240180642L
aL240217515L
aL240458252L
aL240467601L
aL240822094L
aL240858474L
aL241386111L
aL241393330L
aL241411058L
aL241516043L
aL241528143L
aL241530963L
aL241595625L
aL241708186L
aL241931996L
aL242066173L
aL242210450L
aL242473697L
aL242535415L
aL242623121L
aL242868474L
aL243118389L
aL243192474L
aL243376331L
aL243437714L
aL243517570L
aL243651910L
aL243697331L
aL243768715L
aL243788095L
aL243872194L
aL243872645L
aL244037479L
aL244226853L
aL244313393L
aL244373050L
aL244774155L
aL244777690L
aL244889483L
aL244967144L
aL245168792L
aL245178912L
aL245242920L
aL245417852L
aL245434889L
aL245439435L
aL245481840L
aL245589824L
aL245722542L
aL246034282L
aL246248703L
aL246581258L
aL246623948L
aL246669168L
aL246750229L
aL246990959L
aL247233080L
aL247278154L
aL247325983L
aL247543243L
aL247594698L
aL247611669L
aL247622680L
aL247776653L
aL248080415L
aL248339878L
aL248530063L
aL248561789L
aL248563190L
aL248606692L
aL249086447L
aL249176285L
aL249215786L
aL249278062L
aL249475839L
aL249510826L
aL249645454L
aL249813055L
aL249843163L
aL250130412L
aL250134082L
aL250242279L
aL250442097L
aL250825606L
aL251238178L
aL251346287L
aL251618476L
aL252480351L
aL252528186L
aL252552955L
aL252685067L
aL252765490L
aL253035047L
aL253227955L
aL253490803L
aL253704496L
aL254100532L
aL254429507L
aL254492672L
aL254534891L
aL254586413L
aL254702360L
aL255421577L
aL255530712L
aL255744743L
aL255759497L
aL255781233L
aL255799839L
aL255835569L
aL256022754L
aL256142022L
aL256201988L
aL256752253L
aL256792061L
aL257058532L
aL257494775L
aL257774414L
aL258064085L
aL258112504L
aL258604968L
aL258635944L
aL259059936L
aL259358921L
aL259387720L
aL259490834L
aL259817869L
aL260094167L
aL260320575L
aL260349785L
aL260605499L
aL260734127L
aL260745232L
aL260921736L
aL260993934L
aL260997202L
aL261210628L
aL261410984L
aL261441192L
aL261871767L
aL261912723L
aL261919606L
aL261961897L
aL261976392L
aL262079719L
aL262299272L
aL262549932L
aL262799242L
aL262856461L
aL262881068L
aL263047365L
aL263308792L
aL263513860L
aL263707042L
aL263774538L
aL264789622L
aL265088625L
aL265250178L
aL265340895L
aL265429728L
aL265524961L
aL265529783L
aL265953016L
aL266064729L
aL266109429L
aL266414357L
aL266439226L
aL266842899L
aL266908269L
aL266908611L
aL266919093L
aL266970759L
aL267127628L
aL267202271L
aL267296236L
aL267656155L
aL267734621L
aL268063005L
aL268128984L
aL268222040L
aL268231957L
aL268360232L
aL268570054L
aL268815167L
aL268854646L
aL269119904L
aL269392868L
aL269567801L
aL269926594L
aL269929270L
aL270104262L
aL270113302L
aL270138832L
aL270441298L
aL270732206L
aL270882441L
aL270897658L
aL270899679L
aL270929845L
aL270932935L
aL271146538L
aL271192839L
aL271224596L
aL271282511L
aL271347884L
aL271907934L
aL272160849L
aL272365177L
aL272474484L
aL272583141L
aL273193294L
aL273330123L
aL273374995L
aL273428195L
aL273451437L
aL273532130L
aL273716206L
aL273847735L
aL274196783L
aL274281632L
aL274477776L
aL274527982L
aL274578196L
aL274621598L
aL274852028L
aL274896069L
aL275151719L
aL275205364L
aL275299698L
aL275333024L
aL275340542L
aL275371601L
aL275385915L
aL276075556L
aL276268537L
aL276360388L
aL276389507L
aL276882350L
aL277033319L
aL277161834L
aL277764523L
aL277927537L
aL278290961L
aL278362119L
aL278513884L
aL279062751L
aL279075907L
aL279431511L
aL279513216L
aL279606595L
aL279806204L
aL279810780L
aL280022558L
aL280294094L
aL280613158L
aL280780072L
aL281251296L
aL281255573L
aL281364545L
aL281655469L
aL281712228L
aL281925634L
aL281939016L
aL281982921L
aL282023096L
aL282055821L
aL282176181L
aL282294360L
aL282367881L
aL282395047L
aL282416476L
aL282615180L
aL282698626L
aL282766152L
aL282871087L
aL283056009L
aL283355020L
aL283440443L
aL283486316L
aL283532061L
aL283821638L
aL284106939L
aL284248564L
aL284270664L
aL284285792L
aL284808519L
aL285398681L
aL285649176L
aL285669852L
aL286412461L
aL286419250L
aL286524870L
aL286847803L
aL286965229L
aL286996618L
aL287316838L
aL287522204L
aL287989008L
aL288465392L
aL288536223L
aL288591034L
aL288756088L
aL288774446L
aL289018111L
aL289054510L
aL289169915L
aL289181363L
aL289622584L
aL289640551L
aL289771085L
aL289821469L
aL290074400L
aL290530122L
aL290589980L
aL290639971L
aL290641782L
aL290697032L
aL290729633L
aL290756741L
aL291127022L
aL291258568L
aL291369108L
aL291519148L
aL291895474L
aL292036871L
aL292168239L
aL292469266L
aL292669553L
aL293479250L
aL294277145L
aL294481453L
aL295050946L
aL295198400L
aL297053301L
aL297556284L
aL297988681L
aL298520669L
aL299186127L
aL299222122L
aL299273955L
aL299368466L
aL299413409L
aL299882804L
aL300014778L
aL300034559L
aL300389403L
aL300453620L
aL300488890L
aL300529714L
aL300552026L
aL300593216L
aL300630567L
aL300732928L
aL300952963L
aL301081524L
aL301126302L
aL301237945L
aL302193862L
aL302229136L
aL303811286L
aL303832264L
aL304031331L
aL304103325L
aL304392784L
aL304682263L
aL304712038L
aL305310331L
aL305687102L
aL305749814L
aL306040618L
aL306222693L
aL306360001L
aL306616621L
aL306894227L
aL306914140L
aL307173882L
aL307249783L
aL307253181L
aL307418871L
aL307467337L
aL307554763L
aL307798644L
aL308065024L
aL308077425L
aL308453076L
aL308500419L
aL308515866L
aL308537913L
aL308693079L
aL308705814L
aL308767131L
aL308796601L
aL309376762L
aL309383653L
aL309456037L
aL309488755L
aL309921196L
aL310000953L
aL310576555L
aL310920685L
aL310952104L
aL311264262L
aL311360920L
aL311382064L
aL311582188L
aL312233698L
aL312573086L
aL312764575L
aL313107191L
aL313670334L
aL314034446L
aL314198304L
aL314322710L
aL314857787L
aL314948711L
aL315425863L
aL315592976L
aL315724922L
aL315759329L
aL315785987L
aL315974419L
aL316093392L
aL316102676L
aL316126274L
aL316194559L
aL316353015L
aL316452175L
aL316471241L
aL316804950L
aL316838744L
aL319093644L
aL319219151L
aL319225444L
aL319691162L
aL320667774L
aL320690318L
aL320998325L
aL321281029L
aL321789036L
aL321996053L
aL321997901L
aL322510695L
aL322537852L
aL323001306L
aL323016788L
aL323173964L
aL323364709L
aL323579084L
aL324390475L
aL324871208L
aL324965347L
aL325668051L
aL325936593L
aL326110073L
aL326168465L
aL326193051L
aL326309122L
aL326906374L
aL326992744L
aL327048273L
aL327104096L
aL327154928L
aL327470617L
aL327673658L
aL327841350L
aL328446842L
aL329252926L
aL330380950L
aL330405920L
aL330507536L
aL330686405L
aL331323495L
aL331720592L
aL331951993L
aL332065088L
aL332093415L
aL332214421L
aL332575482L
aL332646598L
aL332893570L
aL333422425L
aL333753942L
aL335518129L
aL336218185L
aL336355310L
aL336721545L
aL336729192L
aL336806217L
aL336912447L
aL337546315L
aL337578303L
aL337709829L
aL337739873L
aL337951981L
aL338542404L
aL338616588L
aL338680999L
aL338758787L
aL339351476L
aL339383199L
aL339428702L
aL339625551L
aL340161470L
aL340214951L
aL341009123L
aL341240628L
aL341256135L
aL341262841L
aL341314341L
aL341337229L
aL341503359L
aL341623823L
aL341705014L
aL342250401L
aL342284941L
aL342327087L
aL342497055L
aL342836772L
aL342917195L
aL342991602L
aL344176585L
aL345325787L
aL345565275L
aL345889206L
aL345958514L
aL346350448L
aL346585599L
aL346775529L
aL347258550L
aL347480328L
aL347486448L
aL348109602L
aL348331476L
aL348783044L
aL348972713L
aL349696451L
aL350556046L
aL350671343L
aL350744633L
aL351386650L
aL351579562L
aL351705144L
aL351805900L
aL352375108L
aL353363586L
aL353843534L
aL354064661L
aL354214587L
aL354652205L
aL355253410L
aL355823899L
aL355958420L
aL356034990L
aL356366177L
aL357020682L
aL357057241L
aL357299524L
aL357337922L
aL358090776L
aL358092048L
aL358305010L
aL358569684L
aL359437293L
aL359642086L
aL359729831L
aL359869233L
aL359929711L
aL360248834L
aL360875843L
aL360920121L
aL361441449L
aL361585155L
aL362158666L
aL362342579L
aL363362439L
aL363885056L
aL364028158L
aL364120007L
aL364264028L
aL364840620L
aL365451306L
aL365821087L
aL366353353L
aL366421640L
aL366649617L
aL366700257L
aL366780677L
aL367121954L
aL367281174L
aL367402520L
aL367439356L
aL367759007L
aL367882135L
aL368052579L
aL368216091L
aL368397742L
aL368567105L
aL368998123L
aL369477658L
aL369488251L
aL369791269L
aL370117729L
aL370510625L
aL371471079L
aL372225249L
aL372858736L
aL373255549L
aL373868250L
aL373928929L
aL374225276L
aL374241047L
aL374505997L
aL375360619L
aL376007056L
aL376567487L
aL376695622L
aL377838423L
aL378594899L
aL379806702L
aL380149230L
aL380320597L
aL381043359L
aL381160409L
aL381309414L
aL381550338L
aL382940068L
aL383192639L
aL383500941L
aL383952638L
aL383954630L
aL384939940L
aL385488665L
aL385623098L
aL385834616L
aL386440193L
aL387327161L
aL389589138L
aL390372222L
aL390676408L
aL390964556L
aL391021332L
aL391237017L
aL391280646L
aL392631952L
aL393446890L
aL393525491L
aL393581269L
aL394678303L
aL397858543L
aL397896660L
aL398777977L
aL398988999L
aL399206269L
aL399221663L
aL399369597L
aL400726325L
aL400822602L
aL401235165L
aL402079224L
aL402197991L
aL402386450L
aL402739872L
aL402785512L
aL402911027L
aL403000773L
aL403172664L
aL403980651L
aL405459833L
aL405497094L
aL406122188L
aL407741762L
aL407863407L
aL408066708L
aL409095073L
aL409965100L
aL410307636L
aL411278144L
aL411663707L
aL412212879L
aL412933019L
aL412994264L
aL413506936L
aL414045338L
aL414266847L
aL415651209L
aL415812911L
aL415952451L
aL415962750L
aL415979350L
aL416575292L
aL416876105L
aL416972288L
aL418956926L
aL419259972L
aL419511944L
aL419543410L
aL420675467L
aL421455642L
aL421800222L
aL423774385L
aL423906818L
aL425510533L
aL427324468L
aL427521624L
aL427828889L
aL428018681L
aL428185057L
aL429038823L
aL429080915L
aL429904136L
aL430056641L
aL430202356L
aL430347262L
aL430711593L
aL431502070L
aL432294752L
aL432538071L
aL432596069L
aL433588951L
aL434676878L
aL435432692L
aL436010383L
aL436740025L
aL438652727L
aL439623451L
aL440070708L
aL440087150L
aL442531183L
aL443391209L
aL443866872L
aL445022374L
aL445265235L
aL445879831L
aL447051349L
aL447103204L
aL447574288L
aL449033559L
aL449177940L
aL449314811L
aL449569522L
aL449599762L
aL449654872L
aL450325615L
aL450412552L
aL451840641L
aL452198996L
aL453781064L
aL453862133L
aL454024531L
aL455198267L
aL455273221L
aL456267100L
aL457067884L
aL459899090L
aL460127913L
aL460765742L
aL461394264L
aL461485423L
aL462589386L
aL463333400L
aL463677674L
aL463720602L
aL465817918L
aL466275980L
aL466690968L
aL467478966L
aL467903661L
aL467996907L
aL469343149L
aL469982704L
aL470086182L
aL470549078L
aL471034833L
aL471365996L
aL472464119L
aL475501965L
aL476780203L
aL479948708L
aL480524628L
aL480726592L
aL481677178L
aL482172727L
aL482191383L
aL482219906L
aL482403472L
aL482772558L
aL484047666L
aL484371315L
aL485831066L
aL486158053L
aL486527013L
aL487110343L
aL487488294L
aL487639120L
aL487797374L
aL488108415L
aL488666004L
aL488953358L
aL489012704L
aL490422447L
aL490586064L
aL491332827L
aL491359555L
aL492054431L
aL492311677L
aL492560067L
aL492922981L
aL493019982L
aL493246918L
aL493784751L
aL496115075L
aL496757900L
aL497272744L
aL497655369L
aL498813956L
aL499897278L
aL500272287L
aL500968724L
aL501470542L
aL501759873L
aL503755303L
aL504917540L
aL505729827L
aL506789997L
aL507777723L
aL507782535L
aL507902411L
aL508525427L
aL508929312L
aL509197578L
aL509716616L
aL509830975L
aL510125018L
aL510594370L
aL511749428L
aL511800757L
aL512754476L
aL513243106L
aL516010932L
aL516219076L
aL516234400L
aL516308971L
aL516980055L
aL517673851L
aL517702967L
aL517868151L
aL518949289L
aL519013602L
aL520014359L
aL520316746L
aL521017065L
aL521846596L
aL522221152L
aL522721420L
aL523213855L
aL524263119L
aL524880309L
aL525594400L
aL526019479L
aL526424785L
aL526491372L
aL527248228L
aL527899664L
aL528035865L
aL528063244L
aL528443206L
aL528496886L
aL529622554L
aL529657349L
aL530207154L
aL531597080L
aL531687235L
aL534039668L
aL534090360L
aL534215157L
aL534421610L
aL534719562L
aL534753674L
aL536599805L
aL536618226L
aL536623935L
aL537829512L
aL539255606L
aL539478479L
aL539821123L
aL540725478L
aL541166313L
aL541347884L
aL541350103L
aL541725839L
aL542642247L
aL543703748L
aL546128456L
aL546262433L
aL547874859L
aL548619565L
aL549277735L
aL550040576L
aL550175219L
aL550809238L
aL551491660L
aL551754024L
aL553023071L
aL554041451L
aL555236667L
aL555708159L
aL556057943L
aL556420004L
aL556998074L
aL557518653L
aL558015096L
aL558246155L
aL558662602L
aL560794861L
aL560907707L
aL561857026L
aL561918958L
aL562151432L
aL564306337L
aL565450122L
aL565936778L
aL566188042L
aL566672223L
aL567470115L
aL568266711L
aL568954999L
aL568998975L
aL569617754L
aL570875019L
aL571055919L
aL571401934L
aL572287550L
aL573353101L
aL574117143L
aL574249072L
aL574297627L
aL574600934L
aL574949867L
aL575309603L
aL576282430L
aL576527080L
aL576581952L
aL577391846L
aL577464954L
aL578002939L
aL578671607L
aL579079584L
aL579113763L
aL579923906L
aL580691171L
aL584691312L
aL586580481L
aL587458924L
aL587812161L
aL590557615L
aL591935803L
aL592253373L
aL593566645L
aL594619711L
aL598243309L
aL598552457L
aL599338707L
aL599368787L
aL599971354L
aL600832391L
aL601265490L
aL601378017L
aL601795851L
aL602892903L
aL602896000L
aL602959820L
aL603482252L
aL604992749L
aL605115898L
aL605366428L
aL605602206L
aL606246351L
aL606516530L
aL606806542L
aL607323168L
aL607982279L
aL609969053L
aL609969118L
aL610387432L
aL612269367L
aL612718087L
aL612915922L
aL613279467L
aL613375537L
aL614802807L
aL617015019L
aL617903102L
aL620119476L
aL620564812L
aL621955608L
aL622168274L
aL622411339L
aL622522624L
aL623506465L
aL625249622L
aL628555082L
aL631551033L
aL635937907L
aL636737143L
aL636944460L
aL637727583L
aL637800936L
aL638032319L
aL638204573L
aL638649435L
aL639625374L
aL641468626L
aL641518802L
aL641975681L
aL643235618L
aL643272618L
aL643483629L
aL643900601L
aL646216376L
aL646903856L
aL647189355L
aL648136621L
aL651010236L
aL651889969L
aL653893324L
aL654716048L
aL654912132L
aL655127959L
aL655966596L
aL656028760L
aL656055496L
aL657922174L
aL658502264L
aL665649842L
aL665995515L
aL669178871L
aL670738221L
aL670931788L
aL671270218L
aL672333853L
aL673268818L
aL674949591L
aL676492487L
aL676664315L
aL681310253L
aL682901497L
aL684219733L
aL686404600L
aL686850699L
aL691426762L
aL691569158L
aL696203765L
aL697652368L
aL699311902L
aL699584436L
aL702550366L
aL705959514L
aL710119823L
aL713062941L
aL713138566L
aL713225966L
aL716451722L
aL716638109L
aL717101837L
aL717262829L
aL718683476L
aL720234376L
aL723910485L
aL724818271L
aL726502059L
aL728615463L
aL732509190L
aL733556368L
aL734150581L
aL737554336L
aL737786825L
aL740984265L
aL743453124L
aL743462086L
aL743909535L
aL747087964L
aL748300898L
aL748990398L
aL752111666L
aL753166157L
aL763449872L
aL766978166L
aL767662723L
aL768467609L
aL771591347L
aL772423855L
aL774400281L
aL775517165L
aL781744273L
aL784861637L
aL790230938L
aL795284859L
aL795301540L
aL798461424L
aL799776896L
aL804428453L
aL807664948L
aL808137980L
aL809800197L
aL813169563L
aL814496047L
aL817164642L
aL818283403L
aL819980473L
aL824242669L
aL824583999L
aL824641636L
aL825515543L
aL833245309L
aL836011772L
aL836070987L
aL839704929L
aL841004349L
aL844545878L
aL844756276L
aL845420941L
aL846157299L
aL853516774L
aL854708741L
aL860810493L
aL863528512L
aL865606918L
aL866581729L
aL867015530L
aL867323565L
aL868420487L
aL869967315L
aL870021817L
aL870177552L
aL870987744L
aL871941290L
aL873564922L
aL881230782L
aL881727299L
aL887098625L
aL887696340L
aL890187522L
aL904347910L
aL904876911L
aL909854250L
aL910222706L
aL910965549L
aL916156227L
aL917438090L
aL918519686L
aL919402011L
aL927275050L
aL928337036L
aL928844300L
aL928849208L
aL930157432L
aL936056707L
aL941510237L
aL941770671L
aL946365230L
aL957973252L
aL961479936L
aL964068950L
aL964654147L
aL964716247L
aL965191368L
aL966447484L
aL966486989L
aL967001168L
aL968664729L
aL969312721L
aL969552373L
aL969702983L
aL970507337L
aL973861852L
aL975581616L
aL977285365L
aL979377450L
aL982599406L
aL982875523L
aL986312001L
aL990218125L
aL992760832L
aL992889002L
aL993363683L
aL993443532L
aL994835043L
aL995420744L
aL996288566L
aL997132130L
aL997730845L
aL1002026681L
aL1002308129L
aL1006265907L
aL1008621722L
aL1009523363L
aL1012827008L
aL1013196241L
aL1014004052L
aL1015781408L
aL1020558798L
aL1020767864L
aL1023797912L
aL1024584358L
aL1026146927L
aL1026519066L
aL1029560491L
aL1030112125L
aL1033250198L
aL1033354841L
aL1034236367L
aL1035913921L
aL1036968133L
aL1037015280L
aL1041853077L
aL1045315633L
aL1046124239L
aL1046899076L
aL1048543379L
aL1049431309L
aL1049784113L
aL1050659966L
aL1050791291L
aL1051150185L
aL1053320030L
aL1053324039L
aL1055161007L
aL1057358682L
aL1058257676L
aL1059023372L
aL1060903629L
aL1060970899L
aL1062569941L
aL1063395814L
aL1064741192L
aL1065736101L
aL1065755082L
aL1065830317L
aL1068788685L
aL1070823167L
aL1072450092L
aL1072547559L
aL1072549484L
aL1075249661L
aL1075513711L
aL1076557308L
aL1076823706L
aL1077901590L
aL1080341980L
aL1081114735L
aL1083377751L
aL1085126748L
aL1085143724L
aL1086706648L
aL1087085179L
aL1087096060L
aL1087118171L
aL1087127565L
aL1088271564L
aL1088355478L
aL1088548996L
aL1090167892L
aL1090433758L
aL1091351658L
aL1091628961L
aL1091633066L
aL1092250030L
aL1092496442L
aL1093278541L
aL1093570476L
aL1093918911L
aL1094346452L
aL1095660903L
aL1096139671L
aL1096410294L
aL1096772267L
aL1097574148L
aL1097817196L
aL1097944092L
aL1098022248L
aL1098433336L
aL1098859297L
aL1099078035L
aL1100452851L
aL1100979646L
aL1101158140L
aL1101631700L
aL1102561769L
aL1103790475L
aL1103858978L
aL1104332738L
aL1104607772L
aL1105062716L
aL1105649332L
aL1105925109L
aL1106914703L
aL1107021856L
aL1107090725L
aL1107350423L
aL1107672769L
aL1107687630L
aL1109305380L
aL1109396110L
aL1110490361L
aL1110708874L
aL1110754880L
aL1110780184L
aL1111464161L
aL1111747129L
aL1111798528L
aL1112291013L
aL1112582966L
aL1112680830L
aL1113056525L
aL1114445513L
aL1114549131L
aL1114825432L
aL1115606346L
aL1115612811L
aL1115650474L
aL1116177296L
aL1117448725L
aL1117796571L
aL1117858965L
aL1118341808L
aL1118490712L
aL1118781675L
aL1119403658L
aL1119476454L
aL1120451431L
aL1120671050L
aL1120886633L
aL1121085612L
aL1121331320L
aL1121458549L
aL1121506967L
aL1121936209L
aL1122197280L
aL1122533498L
aL1124794509L
aL1125301581L
aL1126447577L
aL1127003207L
aL1127569042L
aL1127775490L
aL1127892456L
aL1128309912L
aL1128390680L
aL1129489453L
aL1130239758L
aL1131431616L
aL1131457492L
aL1131717669L
aL1132631707L
aL1132811871L
aL1133072421L
aL1133186861L
aL1133531048L
aL1133843542L
aL1133971963L
aL1134114941L
aL1134416762L
aL1135102460L
aL1135130174L
aL1136538375L
aL1136844830L
aL1136912635L
aL1137047923L
aL1137074994L
aL1137289302L
aL1137611501L
aL1137773393L
aL1137963977L
aL1139037316L
aL1139406914L
aL1139429948L
aL1140733688L
aL1142334075L
aL1144036917L
aL1145023602L
aL1145074455L
aL1145212606L
aL1145916008L
aL1146158709L
aL1146238612L
aL1146762107L
aL1146947956L
aL1146970519L
aL1147474262L
aL1148227450L
aL1148332662L
aL1149706443L
aL1149921413L
aL1149924351L
aL1150007515L
aL1150583545L
aL1150846694L
aL1150871293L
aL1151612608L
aL1152132949L
aL1153192688L
aL1153520594L
aL1153539103L
aL1153960391L
aL1155235245L
aL1155578405L
aL1155679147L
aL1155809308L
aL1155821100L
aL1156719743L
aL1156866012L
aL1157323701L
aL1158372907L
aL1158457005L
aL1159376957L
aL1160320377L
aL1162889748L
aL1162933057L
aL1162964153L
aL1165158804L
aL1165690622L
aL1166007625L
aL1166475046L
aL1166824717L
aL1170522628L
aL511097094L
aL4091333L
aL291401861L
aL8650508L
aL17403363L
aL18119305L
aL205183508L
aL222269507L
aL235857103L
aL239439083L
aL245827716L
aL256021961L
aL278697806L
aL369822670L
aL424913873L
aL517622730L
aL531516189L
aL1091745082L
aL1137336137L
aL10023602L
aL184410746L
aL184624678L
aL198453210L
aL214958951L
aL258931282L
aL283868376L
aL296825563L
aL314927380L
aL314954464L
aL453337420L
aL3836106L
aL26847304L
aL36093868L
aL54007786L
aL180671621L
aL194404011L
aL296974282L
aL316264116L
aL738874057L
aL8791877L
aL26943892L
aL179002151L
aL217408567L
aL242379296L
aL259884968L
aL271979270L
aL288211210L
aL297967063L
aL318862249L
aL324848244L
aL332256821L
aL384089699L
aL1121195165L
aL1146673549L
aL2833279L
aL11637618L
aL16711095L
aL25384789L
aL34646629L
aL37589718L
aL51164578L
aL182387437L
aL185380078L
aL186466904L
aL215925205L
aL236466735L
aL329799411L
aL349198411L
aL512158046L
aL957717368L
aL1001144204L
aL6388129L
aL9154958L
aL11561523L
aL12186645L
aL13684123L
aL29799140L
aL30119117L
aL30836537L
aL178848408L
aL180927747L
aL197635245L
aL217957965L
aL222510041L
aL238849721L
aL242811144L
aL248116397L
aL270554479L
aL308625502L
aL347405083L
aL365486713L
aL372222727L
aL494812897L
aL588263626L
aL642995287L
aL1106134270L
aL1364664L
aL6238445L
aL7378176L
aL8313075L
aL8537772L
aL15397959L
aL33188334L
aL37528355L
aL42495082L
aL48288814L
aL52096476L
aL186698265L
aL194894127L
aL199846174L
aL229414758L
aL284975908L
aL308710688L
aL348345082L
aL419185939L
aL439554943L
aL490388970L
aL657476875L
aL782693500L
aL1117322110L
aL1135820080L
aL2642409L
aL8291425L
aL13674581L
aL20706967L
aL27063752L
aL30420858L
aL34555160L
aL36642423L
aL178207868L
aL195890458L
aL233972285L
aL239610569L
aL270626821L
aL280573084L
aL322105349L
aL328217014L
aL349312558L
aL493129407L
aL509250734L
aL623605358L
aL624032297L
aL662493621L
aL733409734L
aL5734143L
aL9631012L
aL11602407L
aL18700140L
aL24026675L
aL32229573L
aL37803384L
aL44163103L
aL176874983L
aL184870813L
aL214270915L
aL214615515L
aL225813451L
aL229917056L
aL232204073L
aL233437708L
aL244329065L
aL272748156L
aL289000437L
aL289674463L
aL335103874L
aL339962189L
aL342862924L
aL396426671L
aL396797261L
aL399340933L
aL401963849L
aL413021177L
aL426341802L
aL431761347L
aL589447167L
aL624799527L
aL724672155L
aL807500786L
aL849058185L
aL879650336L
aL1011415849L
aL1152045518L
aL2290363L
aL12034709L
aL12863626L
aL18322707L
aL19504438L
aL22344990L
aL49492133L
aL54857631L
aL178213572L
aL178680910L
aL182408763L
aL183805324L
aL187361190L
aL187398620L
aL198704018L
aL216767020L
aL231605135L
aL237201856L
aL247859174L
aL253460687L
aL263146081L
aL274613610L
aL278559062L
aL298858185L
aL320001685L
aL400294603L
aL511820060L
aL598011099L
aL634361976L
aL757704496L
aL827954235L
aL867778418L
aL879329519L
aL1092011688L
aL3134491L
aL4475950L
aL6826891L
aL13492802L
aL17915951L
aL19904104L
aL22161538L
aL26450517L
aL27856920L
aL29289291L
aL31380172L
aL32004424L
aL54546653L
aL175845201L
aL179278653L
aL183182719L
aL209789932L
aL217262023L
aL224342576L
aL225055105L
aL237226204L
aL245646921L
aL255739254L
aL260408983L
aL260481086L
aL282977883L
aL292769861L
aL299935381L
aL300344563L
aL314945418L
aL361632118L
aL388174749L
aL400202826L
aL404072212L
aL457377387L
aL564893476L
aL594266127L
aL671134682L
aL1038097881L
aL1149213389L
aL126119L
aL3311564L
aL5307665L
aL6558939L
aL8460355L
aL9696204L
aL10128723L
aL10932846L
aL13030717L
aL14690018L
aL16457854L
aL29403261L
aL44259203L
aL51890692L
aL104997019L
aL188594431L
aL190524576L
aL199736675L
aL214070153L
aL215051523L
aL228708379L
aL236882482L
aL245125881L
aL247249613L
aL255946481L
aL269541261L
aL283166843L
aL299411408L
aL323156695L
aL329980137L
aL430771227L
aL481861363L
aL481983889L
aL485116172L
aL486428614L
aL524818420L
aL557166031L
aL655793157L
aL732228332L
aL735084490L
aL1001502584L
aL1003757301L
aL1041900096L
aL1080738689L
aL1099157817L
aL1135831110L
aL4036282L
aL4206801L
aL4775838L
aL5726069L
aL14978329L
aL18192218L
aL18757605L
aL23582162L
aL25306736L
aL27776997L
aL33311053L
aL38773918L
aL41412138L
aL48807230L
aL176977090L
aL186858404L
aL187753081L
aL194953492L
aL199710998L
aL201538600L
aL209338989L
aL210164627L
aL212091044L
aL228859219L
aL243547861L
aL255256754L
aL273267424L
aL276406440L
aL296457272L
aL316471360L
aL318473411L
aL323424522L
aL370261944L
aL371391612L
aL417114432L
aL459900563L
aL884650700L
aL1065733857L
aL1081301919L
aL3033289L
aL3040988L
aL7010508L
aL7736030L
aL9443154L
aL13251221L
aL13279306L
aL16181224L
aL16836940L
aL17218809L
aL19094628L
aL21821860L
aL28865064L
aL43067935L
aL48866327L
aL55147424L
aL186637566L
aL192761821L
aL193071631L
aL195243997L
aL204342113L
aL207723375L
aL216456292L
aL234867560L
aL235297084L
aL242477883L
aL248219003L
aL248799659L
aL283051382L
aL283611750L
aL316412290L
aL349979077L
aL360985553L
aL371946476L
aL375947744L
aL395500686L
aL419293183L
aL420126364L
aL425992529L
aL503001954L
aL503513531L
aL512657830L
aL512855949L
aL513551280L
aL520684368L
aL778867649L
aL915300751L
aL941565339L
aL944125333L
aL981576453L
aL1001995495L
aL684137L
aL2281068L
aL7201694L
aL7349393L
aL11907253L
aL14407587L
aL19899467L
aL24771400L
aL28734186L
aL31655163L
aL36995944L
aL38154561L
aL41381973L
aL53385839L
aL56067404L
aL145501278L
aL175701501L
aL176614434L
aL177723111L
aL179511838L
aL183158099L
aL184907264L
aL189816295L
aL194213641L
aL196864949L
aL197168778L
aL200942015L
aL202379655L
aL205841829L
aL223933232L
aL226393755L
aL229287139L
aL231412903L
aL243562671L
aL243737285L
aL251984871L
aL260693962L
aL263079701L
aL270743258L
aL272446374L
aL278307373L
aL284778533L
aL294563935L
aL295596956L
aL300518460L
aL301769213L
aL307534327L
aL330942187L
aL337933547L
aL367854155L
aL396953579L
aL446512263L
aL478228706L
aL534585864L
aL554729624L
aL590765917L
aL641019993L
aL834046775L
aL942416959L
aL1093833210L
aL1118205L
aL1418876L
aL1425791L
aL6106357L
aL6982307L
aL8922981L
aL12047433L
aL15912181L
aL16448967L
aL17190045L
aL17252417L
aL20133261L
aL21836624L
aL22913092L
aL25013053L
aL26345584L
aL27455376L
aL28232918L
aL29703349L
aL31078473L
aL34604622L
aL36985989L
aL39868168L
aL41528572L
aL49362283L
aL144176693L
aL178153087L
aL182022382L
aL183013628L
aL201847707L
aL209243991L
aL209341862L
aL211325513L
aL214291771L
aL218934784L
aL221762047L
aL222936806L
aL224874952L
aL226835858L
aL232447509L
aL243239544L
aL243239942L
aL245703502L
aL255194815L
aL256332016L
aL285618440L
aL290175783L
aL293165815L
aL297964989L
aL320770687L
aL343791072L
aL385606417L
aL414289411L
aL430521842L
aL476347653L
aL481015764L
aL510109514L
aL514256273L
aL525307877L
aL568432749L
aL729250010L
aL808479096L
aL814201119L
aL881498677L
aL966720054L
aL993901427L
aL1117802L
aL2842281L
aL3641217L
aL7324010L
aL8245893L
aL17077857L
aL17083352L
aL17126254L
aL18193717L
aL18854914L
aL18859228L
aL24115205L
aL27054408L
aL27558382L
aL32925798L
aL37047524L
aL40871550L
aL42572245L
aL45531704L
aL50922808L
aL56147829L
aL188361754L
aL193870011L
aL198073415L
aL198450799L
aL216607694L
aL230299972L
aL234803231L
aL239194458L
aL240927493L
aL245357992L
aL250477161L
aL254650453L
aL255059476L
aL262519136L
aL268884460L
aL279397386L
aL280791770L
aL286270124L
aL289512481L
aL303558868L
aL316372543L
aL352745513L
aL371630907L
aL494111859L
aL496829001L
aL501579785L
aL528027467L
aL541686704L
aL547116926L
aL581118703L
aL605483051L
aL785155203L
aL850423242L
aL989699648L
aL1066773295L
aL1085480425L
aL1088717589L
aL1101154107L
aL1125360753L
aL1157259L
aL2742434L
aL5100128L
aL6044447L
aL6330151L
aL7664731L
aL9342737L
aL13260668L
aL14097844L
aL14314899L
aL15352684L
aL15556895L
aL16248795L
aL17594981L
aL18656132L
aL20092885L
aL20137757L
aL20832257L
aL21293897L
aL29443194L
aL30855291L
aL34002472L
aL35542582L
aL39310594L
aL39408898L
aL45844123L
aL52456656L
aL54000842L
aL144493793L
aL145349750L
aL174402203L
aL175076407L
aL175791857L
aL175797175L
aL177352302L
aL177911009L
aL179064944L
aL182512766L
aL187018439L
aL188926531L
aL196675593L
aL198416413L
aL203144759L
aL204636169L
aL209240726L
aL216208868L
aL222092768L
aL222184861L
aL230523744L
aL257524622L
aL263766502L
aL268028249L
aL268423464L
aL272302832L
aL275166944L
aL278431236L
aL289735327L
aL302207627L
aL315729181L
aL330825316L
aL333471509L
aL351772942L
aL365084509L
aL367580223L
aL368486011L
aL368809911L
aL371609437L
aL376891089L
aL393721154L
aL399133426L
aL399842681L
aL440901983L
aL447546001L
aL496943684L
aL505694961L
aL547848706L
aL592136677L
aL647211699L
aL648990435L
aL716676081L
aL719305341L
aL734819578L
aL915533779L
aL1003108779L
aL1072937055L
aL1093941829L
aL1115388702L
aL1125945419L
aL1011689L
aL1454431L
aL5401003L
aL5903799L
aL7141133L
aL12605789L
aL16226654L
aL24427761L
aL24589027L
aL26972739L
aL29300638L
aL29570459L
aL43062648L
aL55178286L
aL143895430L
aL145497721L
aL178168573L
aL178789454L
aL184499826L
aL186646583L
aL191414994L
aL192264372L
aL201383492L
aL202998603L
aL204461175L
aL206376364L
aL210156371L
aL220793517L
aL221939624L
aL237068986L
aL248515371L
aL254585877L
aL256325966L
aL258189676L
aL261294715L
aL269911840L
aL272993495L
aL299338405L
aL335431315L
aL336165318L
aL348859437L
aL354219621L
aL358816793L
aL392780443L
aL461259775L
aL467284878L
aL475269014L
aL539048333L
aL632523328L
aL643136713L
aL888175882L
aL1004031445L
aL1039315306L
aL1041575336L
aL1049784L
aL2483928L
aL8073303L
aL8209345L
aL8973881L
aL12520749L
aL12995145L
aL24498869L
aL25176615L
aL34160108L
aL39881155L
aL45965519L
aL46485543L
aL53870662L
aL177717298L
aL181754335L
aL182813561L
aL197682439L
aL206037535L
aL219384928L
aL222627230L
aL223854840L
aL229015367L
aL232483157L
aL236013413L
aL250445581L
aL252068679L
aL255561764L
aL266112880L
aL266474823L
aL277643075L
aL279128110L
aL279916399L
aL285410787L
aL288729908L
aL291761697L
aL296102274L
aL300391769L
aL321722909L
aL324239749L
aL334611654L
aL354048757L
aL354922040L
aL375850636L
aL459781988L
aL463518921L
aL536575827L
aL542419762L
aL553999213L
aL560669676L
aL579556833L
aL587201686L
aL623871265L
aL670357519L
aL943960263L
aL974599870L
aL993849393L
aL965408L
aL1368938L
aL1397098L
aL1730705L
aL1791818L
aL2983907L
aL6243074L
aL7026082L
aL10836450L
aL10890817L
aL12119585L
aL12202781L
aL13158634L
aL16716360L
aL18331576L
aL19471446L
aL20731074L
aL22002781L
aL22503611L
aL23243967L
aL25438913L
aL28631502L
aL34246228L
aL35402477L
aL40105373L
aL49818349L
aL50699728L
aL52362050L
aL53047798L
aL175923112L
aL179731144L
aL181168309L
aL181496144L
aL183265070L
aL185314058L
aL191707163L
aL195080254L
aL198572050L
aL198895412L
aL199558443L
aL200725384L
aL204373960L
aL215307387L
aL220891285L
aL224773619L
aL228341114L
aL229785106L
aL237678832L
aL244689657L
aL251890954L
aL252046243L
aL253138661L
aL256206880L
aL258553664L
aL269059220L
aL287874880L
aL287925008L
aL309527018L
aL350715512L
aL361144198L
aL385758710L
aL413047482L
aL428340242L
aL430756796L
aL449448268L
aL458594023L
aL477964145L
aL491480500L
aL592074868L
aL647392239L
aL654044546L
aL699178326L
aL727459115L
aL733425116L
aL839791780L
aL896836942L
aL1130512934L
aL1134777507L
aL1140542938L
aL218642L
aL286671L
aL836483L
aL1196859L
aL1820895L
aL6342990L
aL9127362L
aL11550082L
aL12511046L
aL13493026L
aL13773615L
aL18621062L
aL20283512L
aL21803330L
aL22537285L
aL25316432L
aL27956733L
aL32702638L
aL42256058L
aL42666437L
aL45597854L
aL46575972L
aL49808432L
aL49846569L
aL49875062L
aL181445933L
aL182689217L
aL189483040L
aL200262444L
aL205415273L
aL214732603L
aL217821077L
aL227901930L
aL235550083L
aL237936818L
aL246316637L
aL250141948L
aL253215408L
aL256062225L
aL272725489L
aL280670309L
aL289644903L
aL296369581L
aL304112935L
aL321031310L
aL330467742L
aL357771101L
aL364327269L
aL366581161L
aL373216258L
aL452582933L
aL456970066L
aL464242028L
aL525679334L
aL534923298L
aL569934879L
aL985822107L
aL989633933L
aL1124054814L
aL1126131470L
aL1726214L
aL1947733L
aL2509121L
aL3092025L
aL3455757L
aL5349834L
aL6029879L
aL10692299L
aL12103599L
aL12281430L
aL13836163L
aL15285310L
aL16146726L
aL16518432L
aL17481185L
aL26993902L
aL27962720L
aL30258629L
aL32719052L
aL43496602L
aL51934928L
aL55264259L
aL55406278L
aL145145758L
aL174007194L
aL174652253L
aL175275871L
aL177680491L
aL177792137L
aL178681505L
aL181261662L
aL181449900L
aL193486337L
aL194304179L
aL198126472L
aL200123095L
aL207082881L
aL208491060L
aL211121707L
aL213688867L
aL215330245L
aL215959381L
aL217756596L
aL220532881L
aL221038364L
aL224286398L
aL233151015L
aL234330976L
aL240320946L
aL250572789L
aL252587005L
aL258996869L
aL262383375L
aL266470852L
aL269439369L
aL270466485L
aL275254773L
aL286168655L
aL289682751L
aL299286614L
aL304683532L
aL304757145L
aL320417961L
aL327155899L
aL340386369L
aL370350538L
aL375355298L
aL391217074L
aL392207234L
aL401972170L
aL443982806L
aL465222556L
aL467883547L
aL473594504L
aL479167991L
aL483072294L
aL497462296L
aL518857206L
aL534118159L
aL538872302L
aL568050454L
aL581778802L
aL588323696L
aL824643108L
aL928360345L
aL983269750L
aL1006654544L
aL1070654904L
aL1082667604L
aL1088436911L
aL1090565452L
aL1103721634L
aL3417483L
aL3605984L
aL6987319L
aL7912872L
aL7926766L
aL8549009L
aL8556267L
aL9206845L
aL9877659L
aL10172286L
aL11192982L
aL15730325L
aL18875648L
aL20638544L
aL22033155L
aL22142180L
aL22968419L
aL28486026L
aL29844823L
aL30090334L
aL30623703L
aL33148349L
aL33520296L
aL35356507L
aL35565786L
aL35765241L
aL45269978L
aL47120873L
aL50945155L
aL56046004L
aL144250321L
aL174595939L
aL176475124L
aL176648640L
aL177913745L
aL186215743L
aL195506576L
aL195950125L
aL196406401L
aL198964855L
aL199663932L
aL201895264L
aL202567771L
aL209801542L
aL212125006L
aL213492295L
aL227387315L
aL229009526L
aL231262431L
aL234100445L
aL235049080L
aL239675887L
aL253686632L
aL257268298L
aL258067647L
aL258872446L
aL268711767L
aL282928919L
aL284494109L
aL287473613L
aL294807880L
aL299037141L
aL299371855L
aL309419103L
aL312297591L
aL313239963L
aL322038166L
aL328300973L
aL344749190L
aL358091892L
aL384592181L
aL385819670L
aL389027327L
aL422166618L
aL472895655L
aL514905114L
aL531476194L
aL570397335L
aL610742154L
aL633099113L
aL680666612L
aL706288035L
aL848702317L
aL1077534497L
aL1087071192L
aL987978L
aL1289803L
aL2314007L
aL2497311L
aL6039773L
aL14202320L
aL16178809L
aL16823681L
aL22828510L
aL25012182L
aL32715247L
aL34657044L
aL43260374L
aL49568872L
aL145408770L
aL177799270L
aL185656469L
aL187698822L
aL188358617L
aL191326039L
aL196829259L
aL203769573L
aL206597467L
aL210793514L
aL212178247L
aL216446612L
aL217706709L
aL222051231L
aL227439215L
aL230973431L
aL234206307L
aL241037788L
aL242117127L
aL245302587L
aL249339948L
aL251161834L
aL268931263L
aL271209714L
aL281661072L
aL288108004L
aL310020950L
aL326271564L
aL332093355L
aL339227487L
aL362593977L
aL363398739L
aL365729356L
aL390794913L
aL398464507L
aL421552972L
aL464327000L
aL494312528L
aL498467897L
aL686503791L
aL849765128L
aL889634403L
aL898662021L
aL1032986411L
aL1040864790L
aL1049575882L
aL1111822533L
aL714173L
aL1698997L
aL4311006L
aL5365193L
aL5928578L
aL9149137L
aL9519311L
aL14443067L
aL14448775L
aL15469128L
aL16850953L
aL17554751L
aL19477195L
aL22695202L
aL23035600L
aL44797140L
aL51230350L
aL55233358L
aL144870314L
aL145789270L
aL179671032L
aL183307423L
aL186689915L
aL194350295L
aL195164199L
aL196746679L
aL198063101L
aL210378770L
aL226810663L
aL230532424L
aL231027591L
aL239001758L
aL244096147L
aL244213481L
aL253978885L
aL270393611L
aL271851703L
aL275971845L
aL279692777L
aL285902544L
aL287971901L
aL288672751L
aL296959053L
aL314539885L
aL356733420L
aL378844168L
aL400092958L
aL402211261L
aL433900807L
aL509402979L
aL559189324L
aL749318573L
aL857645821L
aL898831599L
aL1094785378L
aL1104694430L
aL336925L
aL2441763L
aL2452016L
aL5433584L
aL7505082L
aL8072618L
aL8212109L
aL8531932L
aL8661217L
aL9186257L
aL9891860L
aL12447461L
aL18127493L
aL29310971L
aL29381941L
aL30856369L
aL33151368L
aL44014819L
aL46877305L
aL51072835L
aL52759289L
aL54530802L
aL145411692L
aL177382834L
aL178178696L
aL180571282L
aL182039306L
aL184397074L
aL186705038L
aL192682889L
aL193109661L
aL200858314L
aL201085146L
aL201264062L
aL203519490L
aL214105381L
aL218226846L
aL224699884L
aL227375755L
aL231824967L
aL233006356L
aL239817208L
aL245064530L
aL245155891L
aL247863716L
aL258268904L
aL260266151L
aL270319788L
aL272359976L
aL282109837L
aL287136080L
aL291742970L
aL306688075L
aL311950430L
aL336362682L
aL358175430L
aL386504472L
aL394332563L
aL450331581L
aL481120777L
aL532732378L
aL542443089L
aL545024397L
aL549381011L
aL550590077L
aL580681085L
aL593005434L
aL748570539L
aL750570337L
aL867869462L
aL876700747L
aL992729388L
aL1029854204L
aL1088088176L
aL1092631462L
aL1133532939L
aL1141151266L
aL420179L
aL712864L
aL1081718L
aL1482356L
aL3630384L
aL12540113L
aL17681290L
aL18233034L
aL18424545L
aL28354018L
aL28965637L
aL36560079L
aL38505328L
aL45197803L
aL45418691L
aL46526272L
aL47366234L
aL52856646L
aL54379635L
aL55389336L
aL145820011L
aL173841462L
aL174938178L
aL177319008L
aL179365384L
aL180118583L
aL180466858L
aL180869402L
aL184065165L
aL184368587L
aL191122546L
aL193034364L
aL201218486L
aL202100172L
aL207114533L
aL212447679L
aL212959638L
aL223972365L
aL238164321L
aL245805962L
aL254447841L
aL256832663L
aL257858964L
aL271216478L
aL275692645L
aL285515785L
aL287965436L
aL321467585L
aL321780360L
aL323609353L
aL328920939L
aL329020177L
aL334419286L
aL357616269L
aL367174108L
aL402278532L
aL465360407L
aL473914879L
aL508049277L
aL709872898L
aL731391783L
aL961663350L
aL1038527129L
aL1113144953L
aL1116264915L
aL149687L
aL3756571L
aL5880495L
aL6912013L
aL7276549L
aL9409838L
aL9911225L
aL12523952L
aL13393442L
aL14375466L
aL16739555L
aL20247841L
aL21200142L
aL22327236L
aL25359375L
aL27679829L
aL29948401L
aL30986349L
aL31142834L
aL35992336L
aL37080124L
aL49508199L
aL53482837L
aL53936044L
aL55682499L
aL145879977L
aL179427528L
aL182849952L
aL187963363L
aL193120350L
aL204907513L
aL206331376L
aL208207812L
aL208874415L
aL209876188L
aL217049905L
aL223178995L
aL223545128L
aL224423089L
aL231747255L
aL245584121L
aL247635516L
aL248759032L
aL249679073L
aL257201726L
aL257867705L
aL269421999L
aL276288099L
aL295468186L
aL297984861L
aL298532608L
aL299271241L
aL301707411L
aL317505199L
aL318334636L
aL322272526L
aL336343202L
aL337023280L
aL355578199L
aL356707923L
aL369567036L
aL391275001L
aL393952462L
aL407634929L
aL428689002L
aL430655436L
aL462719194L
aL484435865L
aL499989184L
aL524758550L
aL553641248L
aL565279049L
aL692629402L
aL715022077L
aL716765870L
aL754392925L
aL791356659L
aL1017375668L
aL1025886764L
aL1076531650L
aL1127055704L
aL398005L
aL461112L
aL1250724L
aL1630753L
aL1710675L
aL2931345L
aL3148619L
aL5055950L
aL5304818L
aL9339345L
aL13047836L
aL22845403L
aL23763600L
aL30560197L
aL32467659L
aL33407284L
aL46346577L
aL50949731L
aL53581770L
aL54592355L
aL55352482L
aL173751971L
aL175382754L
aL203400993L
aL224800501L
aL233328971L
aL242937246L
aL245701176L
aL257041128L
aL263242587L
aL278530517L
aL286961855L
aL301067084L
aL312931411L
aL323566607L
aL366172664L
aL371866361L
aL379851411L
aL398042748L
aL399176461L
aL405597201L
aL466463257L
aL584796668L
aL600716765L
aL1005030662L
aL1065278383L
aL1080794349L
aL1102194275L
aL1150120819L
aL2561640L
aL3709725L
aL5794830L
aL20488339L
aL22026290L
aL23265428L
aL26694371L
aL29962850L
aL31707310L
aL31744682L
aL34072110L
aL36174822L
aL51723285L
aL53122536L
aL53339011L
aL176593021L
aL190933075L
aL210384960L
aL219864492L
aL221167372L
aL224082055L
aL229839271L
aL237450527L
aL244397525L
aL247152674L
aL248401560L
aL255005289L
aL290335380L
aL291405903L
aL297322903L
aL323408603L
aL461678472L
aL468605094L
aL485075632L
aL556684810L
aL559218352L
aL588085536L
aL633328131L
aL1143247546L
aL45247L
aL2264544L
aL2802295L
aL5006709L
aL5846852L
aL7490777L
aL11519221L
aL13337229L
aL18381963L
aL21822975L
aL22415096L
aL27852891L
aL30163939L
aL33054896L
aL39446727L
aL42420591L
aL50573329L
aL53661000L
aL174158909L
aL195932436L
aL198992757L
aL205392497L
aL205871522L
aL206657741L
aL208937096L
aL211798976L
aL215534807L
aL219807456L
aL227447041L
aL228915767L
aL264977136L
aL274156470L
aL282603743L
aL304815440L
aL313320420L
aL344065450L
aL346475790L
aL363756789L
aL370638120L
aL399222023L
aL486531195L
aL524948587L
aL596077964L
aL1159180348L
aL4825916L
aL5540093L
aL9081809L
aL9595998L
aL9657648L
aL15555166L
aL24571375L
aL25821676L
aL33424336L
aL56095652L
aL143831648L
aL144640786L
aL177115507L
aL194500138L
aL206706359L
aL218864484L
aL219249356L
aL225767040L
aL254036575L
aL257554914L
aL261395885L
aL267760160L
aL273526444L
aL285430660L
aL290621798L
aL372309628L
aL388404934L
aL494396534L
aL502848218L
aL513197517L
aL523473864L
aL545218663L
aL716292151L
aL829350868L
aL861364182L
aL879076751L
aL931416368L
aL1069528944L
aL1167464055L
aL636677L
aL10293801L
aL13131339L
aL42260608L
aL44990775L
aL55183477L
aL198385853L
aL213453255L
aL220282976L
aL273868975L
aL288492012L
aL301584962L
aL329912485L
aL459433107L
aL473829050L
aL481281099L
aL490588208L
aL701634849L
aL729982748L
aL899902408L
aL951367659L
aL1033759781L
aL1064708448L
aL1150346070L
aL1167481761L
aL23052L
aL223370L
aL1373851L
aL2987141L
aL5992512L
aL11089662L
aL11550421L
aL15928994L
aL15945965L
aL18268430L
aL26740700L
aL36111756L
aL40966339L
aL44381580L
aL49837371L
aL50390284L
aL50889469L
aL174830434L
aL193276927L
aL194923568L
aL195874717L
aL211125518L
aL226809631L
aL261374488L
aL269667771L
aL289079577L
aL308584091L
aL323368717L
aL336640924L
aL369876903L
aL372241039L
aL378752033L
aL503507290L
aL527588731L
aL567360745L
aL727827766L
aL741726921L
aL945057115L
aL1018826133L
aL1093060748L
aL1145727858L
aL2332349L
aL2611857L
aL3220832L
aL12958394L
aL14591334L
aL16066173L
aL16461483L
aL22028477L
aL40631757L
aL41588269L
aL46098157L
aL145016449L
aL177230165L
aL183655598L
aL185519361L
aL190399835L
aL199415982L
aL199821629L
aL200158528L
aL209426614L
aL210586862L
aL214560071L
aL225351825L
aL233746695L
aL241608898L
aL246330223L
aL261328761L
aL270425074L
aL279067583L
aL280262486L
aL282632958L
aL285697026L
aL286477870L
aL299563007L
aL301286114L
aL310817847L
aL315820327L
aL320833964L
aL324433224L
aL328299748L
aL331557887L
aL336703903L
aL363065091L
aL380509955L
aL386603080L
aL492814930L
aL509207497L
aL510132393L
aL550536845L
aL566009046L
aL596039564L
aL700941507L
aL838237925L
aL925873032L
aL998087225L
aL1021201113L
aL1111893166L
aL9417387L
aL14151079L
aL196415851L
aL196903647L
aL318476657L
aL420912634L
aL758530125L
aL1014047809L
aL1028721156L
aL2880597L
aL18777048L
aL47847499L
aL53635427L
aL197313771L
aL208683386L
aL227515184L
aL272929367L
aL358248750L
aL362835049L
aL367836750L
aL396868886L
aL579594702L
aL1069423006L
aL464991L
aL1558170L
aL2489154L
aL9797180L
aL17952621L
aL55660854L
aL178544829L
aL184193579L
aL218577259L
aL229717369L
aL231003148L
aL242445790L
aL335531258L
aL405199252L
aL413501228L
aL647674752L
aL695639741L
aL4174039L
aL20494996L
aL55306688L
aL179330251L
aL181758465L
aL236488735L
aL245372927L
aL251900060L
aL425249749L
aL10459101L
aL29046055L
aL36202827L
aL186799785L
aL208435176L
aL221033985L
aL260034135L
aL311418275L
aL324993668L
aL434204429L
aL481737062L
aL647303739L
aL702238014L
aL5702130L
aL11250403L
aL39314992L
aL55124708L
aL190097884L
aL193516050L
aL201430773L
aL202440020L
aL226951942L
aL241102644L
aL510203152L
aL604809031L
aL2355693L
aL18998086L
aL25200277L
aL37252209L
aL41957800L
aL43969452L
aL175443389L
aL176054333L
aL244149418L
aL302159220L
aL356291776L
aL489503005L
aL1110478201L
aL192148873L
aL218380473L
aL230533102L
aL253980992L
aL288092603L
aL367894503L
aL381487277L
aL981825312L
aL28290076L
aL145481036L
aL183064855L
aL199593496L
aL256687699L
aL361360260L
aL411325753L
aL519539303L
aL651376729L
aL992673786L
aL4586222L
aL14095062L
aL235361671L
aL269323755L
aL33548876L
aL230904981L
aL272784220L
aL647060436L
aL1089287031L
aL267229265L
aL270920575L
aL553495920L
aL243692830L
aL625642847L
aL933475188L
aL265134L
aL2463600L
aL10072224L
aL16158551L
aL22305056L
aL22983351L
aL30413537L
aL226025145L
aL284861403L
aL615405292L
aL14561055L
aL624296312L
aL44893038L
aL771484769L
aL990249070L
aL213497450L
aL288782415L
aL2796925L
aL177416588L
aL649625887L
aL34005236L
aL357179582L
aL498868001L
aL15993027L
aL265382195L
aL30829660L
aL265991964L
aL54888749L
aL272991376L
aL646097509L
aL146084373L
aL8292641L
aL289546657L
aL514107914L
aL20800369L
aL11141363L
aL189627643L
aL403464853L
aL444369967L
aL1080860108L
a.