(lp0
L1650931L
aL914926621L
aL448111214L
aL1013852546L
aL473060070L
aL194169510L
aL232137363L
aL50359308L
aL299837277L
aL529412597L
aL29709169L
aL1975132554L
aL631812427L
aL485902520L
aL52817673L
aL11512292L
aL2160868109L
aL46128162L
aL1012009982L
aL56672708L
aL411648784L
aL152245437L
aL172938199L
aL477649987L
aL14252765L
aL223033288L
aL184101213L
aL583812036L
aL384505175L
aL581440499L
aL461165514L
aL514322572L
aL1653177900L
aL288267443L
aL1657384148L
aL589959672L
aL103130642L
aL2178185243L
aL1536822373L
aL249259792L
aL992803188L
aL1357645884L
aL130279039L
aL432007109L
aL375580355L
aL456464072L
aL964774424L
aL104538191L
aL1565739900L
aL1277575386L
aL459938410L
aL204513558L
aL229247023L
aL90561456L
aL186852862L
aL397566709L
aL70410969L
aL15515154L
aL277566617L
aL308681661L
aL120457027L
aL38637165L
aL845309017L
aL306692555L
aL222943646L
aL252024353L
aL350471713L
aL553700324L
aL450010908L
aL47663009L
aL785287176L
aL42472197L
aL207482968L
aL590391353L
aL31102560L
aL794116897L
aL330928914L
aL225409791L
aL14409745L
aL464925545L
aL216780362L
aL1183506438L
aL103099470L
aL214245315L
aL476539793L
aL2319655515L
aL2239324774L
aL16948380L
aL214431910L
aL386152884L
aL991186626L
aL99120417L
aL384884564L
aL385338962L
aL166258444L
aL2186602543L
aL389097048L
aL343308493L
aL521432439L
aL771107354L
aL157734954L
aL394232243L
aL1117948124L
aL407048032L
aL122116489L
aL154991471L
aL315854388L
aL990807444L
aL1386907261L
aL748565184L
aL358801776L
aL37398685L
aL80989582L
aL79172557L
aL15789409L
aL308672382L
aL359177228L
aL294670731L
aL321313255L
aL472834046L
aL381023029L
aL6138052L
aL396733557L
aL467619158L
aL55204495L
aL964181444L
aL312303116L
aL48849244L
aL773722153L
aL1867969908L
aL121509292L
aL208694843L
aL396883180L
aL2392552865L
aL130181269L
aL166211899L
aL450919049L
aL180145636L
aL966097717L
aL126567491L
aL232211117L
aL2359033920L
aL2299638273L
aL28785681L
aL131848713L
aL222599415L
aL1136314472L
aL96637364L
aL560665017L
aL131941044L
aL1155527041L
aL288375917L
aL1957576207L
aL1070166612L
aL1142534437L
aL488669596L
aL306272532L
aL300771566L
aL439907509L
aL1686349416L
aL2334093309L
aL19658453L
aL37247126L
aL631872854L
aL42954145L
aL265310236L
aL140555306L
aL156588452L
aL632692988L
aL519223626L
aL253714639L
aL411527385L
aL154301535L
aL924432444L
aL55205859L
aL52498049L
aL1285630338L
aL54292453L
aL541141215L
aL202257620L
aL164608618L
aL97603847L
aL198782314L
aL129492505L
aL426195122L
aL1116387066L
aL18723602L
aL51137698L
aL2243718604L
aL396735199L
aL134579573L
aL153746741L
aL304314748L
aL1119124874L
aL276978007L
aL429857120L
aL2227145976L
aL434149426L
aL2206184028L
aL604599355L
aL371792951L
aL187902909L
aL35768178L
aL2356416141L
aL2355000741L
aL396628299L
aL16297777L
aL47994222L
aL203925129L
aL280525283L
aL485050455L
aL380869416L
aL42393500L
aL256880349L
aL52703133L
aL418770462L
aL180859752L
aL432544662L
aL285738586L
aL422511634L
aL257145320L
aL293197208L
aL231133590L
aL259825759L
aL349021996L
aL276023379L
aL222039386L
aL405805643L
aL275901802L
aL529377128L
aL441876627L
aL10979262L
aL964396386L
aL29185572L
aL27333257L
aL811810L
aL1331003810L
aL1088046841L
aL1163442559L
aL401512312L
aL2171149008L
aL479884051L
aL154928152L
aL24693705L
aL222633232L
aL22991126L
aL596589059L
aL416482309L
aL319555140L
aL1269702548L
aL508951327L
aL221478719L
aL70966122L
aL717976610L
aL992719686L
aL383749462L
aL821023094L
aL201934239L
aL338671702L
aL126935365L
aL352732904L
aL946721966L
aL80400714L
aL188296243L
aL436265710L
aL2258533078L
aL68684550L
aL55560637L
aL708614839L
aL287636265L
aL94585473L
aL541907695L
aL395933338L
aL955640022L
aL290658254L
aL491359451L
aL981429824L
aL204454853L
aL2322129796L
aL1216233870L
aL269501057L
aL2193102848L
aL1496395074L
aL48491886L
aL394957363L
aL1024333278L
aL726795528L
aL407727974L
aL222142857L
aL1019468340L
aL52748222L
aL1715084606L
aL375099083L
aL1697145356L
aL2360533937L
aL385067575L
aL292930381L
aL277431887L
aL275020089L
aL2301944279L
a.