(lp0
L340813392L
aL234929412L
aL376070429L
aL327969115L
aL14314686L
aL1370672155L
aL1728446474L
aL163877216L
aL780015906L
aL389403349L
aL12453522L
aL86693223L
aL151106599L
aL403898809L
aL146585037L
aL993619346L
aL41251742L
aL20368493L
aL169488436L
aL14361715L
aL172415545L
aL199376077L
aL2300436718L
aL91018827L
aL382050930L
aL1066669266L
aL54484834L
aL279521944L
aL382539264L
aL408661651L
aL149165786L
aL383277242L
aL1275760988L
aL754893L
aL345684458L
aL231543935L
aL357505838L
aL398647055L
aL115981785L
aL162210488L
aL133461180L
aL19281601L
aL498205332L
aL166613427L
aL2324343555L
aL133391525L
aL1007430704L
aL80611731L
aL1568572050L
aL1883127770L
aL1168387579L
aL17508269L
aL1482927091L
aL326298177L
aL88414601L
aL255921968L
aL229783431L
aL186761951L
aL35725291L
aL118731516L
aL189123226L
aL1037819534L
aL109200622L
aL1443750158L
aL27223152L
aL1885782650L
aL2360862683L
aL26500511L
aL1038964970L
aL2395397968L
aL148022668L
aL393044878L
aL97281454L
aL21477834L
aL515351169L
aL999315187L
aL15341960L
aL2203701820L
aL946205412L
aL339281804L
aL21859391L
aL480583014L
aL98215220L
aL365721412L
aL24504702L
aL290472018L
aL117575584L
aL334591309L
aL478163964L
aL16612015L
aL496192823L
aL249167257L
aL25343203L
aL1304569848L
aL152035396L
aL79148286L
aL16883353L
aL1180241L
aL388892899L
aL178672667L
aL1230117870L
aL260656713L
aL20169878L
aL396773751L
aL407062660L
aL10027162L
aL66461905L
aL79385667L
aL88014506L
aL22637980L
aL283601357L
aL44697203L
aL343197788L
aL271865832L
aL513399605L
aL322933929L
aL221147459L
aL83941845L
aL1068068108L
aL36169773L
aL114722385L
aL82345253L
aL510606361L
aL1392194779L
aL33521233L
aL186849333L
aL2262028973L
aL2204525901L
aL424153335L
aL96142424L
aL1246885932L
aL111362464L
aL516469323L
aL165329180L
aL25092976L
aL2399352707L
aL365471708L
aL100730453L
aL300726406L
aL329277011L
aL34256587L
aL112198719L
aL176136869L
aL202220952L
aL2353276534L
aL379155578L
aL2201291575L
aL1202247139L
aL392734987L
aL260110987L
aL319602419L
aL2311596802L
aL1653520999L
aL1585566860L
aL107517248L
aL175078581L
aL14145846L
aL2356722810L
aL807662096L
aL932622344L
aL246206073L
aL297026600L
aL18749668L
aL1095417751L
aL480292642L
aL2162748499L
aL129133245L
aL150367937L
aL316393390L
aL497220677L
aL593829594L
aL2233203519L
aL1938062029L
aL232104729L
aL223905135L
aL189271748L
aL408388440L
aL397448964L
aL701876786L
aL373908687L
aL1040167027L
aL1479592794L
aL382606319L
aL150011508L
aL924356864L
aL84300449L
aL2272813612L
aL184855292L
aL2308016651L
aL296963363L
aL421951973L
aL1254690164L
aL259731992L
aL624571314L
aL15610207L
aL234091065L
aL389395835L
aL1356707138L
aL702708719L
aL305115964L
aL18917087L
aL10059372L
aL263775424L
aL102042635L
aL861411782L
aL417715010L
aL428522021L
aL1086872066L
aL123970396L
aL369144333L
aL28540433L
aL21768907L
aL340972113L
aL443092953L
aL2298328155L
aL1111096692L
aL1066005014L
aL1890293305L
aL2291578979L
aL374178808L
aL302550459L
aL371139259L
aL933995203L
aL512322055L
aL168271911L
aL2176208741L
aL15253960L
aL185977604L
aL835981963L
aL388890122L
aL1896628724L
aL198444423L
aL368569325L
aL1521870788L
aL852192864L
aL1608431238L
aL866216112L
aL1728294830L
aL130793905L
aL2229167411L
aL380526746L
aL26506295L
aL165962443L
aL2314439313L
aL2369067293L
aL1017729836L
aL393438193L
aL88477338L
aL38740886L
aL335240263L
aL17942169L
aL327200316L
aL286324749L
aL226177325L
aL79116387L
aL1979357646L
aL786445441L
aL551089120L
aL400300041L
aL60398437L
aL1142300029L
aL218263661L
aL705148568L
aL1041889466L
aL40512686L
aL19533771L
aL1366859605L
aL1329308419L
aL991544282L
aL1344088633L
aL44870553L
aL1332047130L
aL1545601964L
aL2372184704L
aL512185353L
aL500658093L
aL96312573L
aL1961025138L
aL270501989L
aL101062380L
aL2294592825L
aL99838806L
aL436822591L
aL1295584778L
aL8411862L
aL369469778L
aL302436233L
aL1542795356L
aL1499509530L
aL1497636950L
aL379606805L
aL2234700123L
aL356275779L
aL176378438L
aL2371147881L
aL123943257L
aL41082669L
aL2376521391L
aL1407026935L
aL353606112L
aL1403487236L
aL380852967L
aL11282L
aL915531224L
aL101347790L
aL2305798923L
aL426035469L
aL385977088L
aL331186510L
aL97199591L
aL8899322L
aL116426354L
aL383209213L
aL69366533L
aL2367661179L
aL409118790L
aL254192443L
aL165399661L
aL378771287L
aL358204633L
aL149248959L
aL1146337897L
aL2149720079L
aL864661074L
aL397335822L
aL1080259472L
aL232751730L
aL1659784278L
aL15056633L
aL39829984L
aL360664435L
aL305709611L
aL24150879L
aL1897068710L
aL87002944L
aL248140028L
aL523476145L
aL234750006L
aL1332000834L
aL127878341L
aL136627091L
aL1139588958L
aL211205977L
aL900357553L
aL334519734L
aL230125340L
aL98405198L
aL22002631L
aL433438505L
aL71796091L
aL26727302L
aL1219124822L
aL292601550L
aL183175739L
aL880227066L
aL65197584L
aL331164529L
aL609013L
aL2278788459L
aL358936118L
aL37028467L
aL1513179378L
aL593604535L
aL37514145L
aL1048647380L
aL1476999348L
aL28188093L
aL19708639L
aL372422371L
aL66838217L
aL506109431L
aL563987903L
aL2343534179L
aL26515595L
aL84582746L
aL776229258L
aL135174631L
aL178471166L
aL225898413L
aL394924129L
aL1704301532L
aL110390706L
aL236752613L
aL397313469L
aL1260171894L
aL2318392703L
aL16903912L
aL43536987L
aL77823743L
aL10660702L
aL15156391L
aL321467589L
aL339869021L
aL790492537L
aL265956337L
aL14253707L
aL868681170L
aL2297901111L
aL16326777L
aL158367065L
aL1234696879L
aL1233775843L
aL391301130L
aL356529179L
aL21522017L
aL149693532L
aL1324197673L
aL1627897386L
aL28176390L
aL1400768496L
aL226868872L
aL751871958L
aL1298956886L
aL1475068422L
aL113365129L
aL496503607L
aL1158217136L
aL1151624496L
aL1554098461L
aL140363073L
aL1013662226L
aL389618288L
aL1364757504L
aL289872881L
aL121107099L
aL385647175L
aL349341655L
aL21293599L
aL8810272L
aL2210531328L
aL154863403L
aL148500652L
aL35229877L
aL1653747558L
aL7950242L
aL337196728L
aL988594298L
aL32909043L
aL374693L
aL22521283L
aL59867238L
aL2265900215L
aL369740012L
aL230558097L
aL398426351L
aL426150557L
aL397320325L
aL267210970L
aL1637555172L
aL1047330996L
aL289494239L
aL413321667L
aL340068583L
aL714563629L
aL68678616L
aL314321740L
aL177843351L
aL392841664L
aL87429680L
aL85615749L
aL128693080L
aL157081903L
aL372263758L
aL295532665L
aL114046049L
aL2203242741L
aL256660575L
aL38406846L
aL267358219L
aL255983841L
aL1099360436L
aL90674937L
aL12921092L
aL317236384L
aL211005053L
aL348135744L
aL401841233L
aL298399986L
aL1318484941L
aL871833150L
aL317858250L
aL235445144L
aL2301979672L
aL1308103964L
aL2281685434L
aL9847392L
aL2189171726L
aL447066768L
aL374221869L
aL2216107764L
aL22463885L
aL1396677506L
aL28434730L
aL250344985L
aL27721194L
aL167777937L
aL425997349L
aL401718459L
aL197375223L
aL94414537L
aL29522096L
aL2360509048L
aL102853924L
aL45942804L
aL2291417202L
aL1193240226L
aL1284293652L
aL146650296L
aL716984766L
aL15108909L
aL2373066203L
aL163400431L
aL1462337636L
aL1370059806L
aL139781574L
aL32702001L
aL1320574388L
aL40244378L
aL304618852L
aL385009570L
aL319339023L
aL412663293L
aL513890490L
aL238446215L
aL17018429L
aL126591720L
aL924750434L
aL21421331L
aL1118844241L
aL1341147450L
aL535862636L
aL284459925L
aL87964051L
aL1672799384L
aL377469668L
aL8128482L
aL101550023L
aL36633390L
aL290494121L
aL444939210L
aL1284546463L
aL220778262L
aL14119087L
aL2190243963L
aL14431633L
aL299123837L
aL1137919670L
aL164233814L
aL343944794L
aL125114076L
aL183598223L
aL465852868L
aL229773007L
aL14819896L
aL449086723L
aL389561369L
aL180629719L
aL1325014436L
aL265557557L
aL2280077402L
aL144587622L
aL302675665L
aL1180026866L
aL2316140372L
aL95712575L
aL321885054L
aL2377407569L
aL263359147L
aL131768793L
aL35123743L
aL128554749L
aL30062603L
aL307244524L
aL792722520L
aL2288745507L
aL321924332L
aL2374320278L
aL25118324L
aL1253049715L
aL356602555L
aL132207234L
aL1943245836L
aL2150850072L
aL342081568L
aL258378686L
aL116728058L
aL15455530L
aL1286628206L
aL367375724L
aL79838806L
aL610085938L
aL582603619L
aL44028279L
aL115147722L
aL2290773026L
aL138766537L
aL47750146L
aL341210671L
aL119672812L
aL216027241L
aL1381451606L
aL1063478606L
aL1471953014L
aL120334012L
aL869829583L
aL1496245382L
aL114462263L
aL95166331L
aL272115891L
aL1682518260L
aL165399911L
aL1378865544L
aL305084130L
aL378548275L
aL280197326L
aL38405781L
aL158726082L
aL186108161L
aL1377337471L
aL1437029797L
aL96633460L
aL2382257447L
aL175881315L
aL16041604L
aL2199259227L
aL1921487707L
aL456177995L
aL393989985L
aL293046700L
aL34564762L
aL998952552L
aL103444619L
aL401445307L
aL117783144L
aL2399340645L
aL182472482L
aL126447911L
aL151462704L
aL58919829L
aL199962450L
aL96406418L
aL1478470790L
aL182697242L
aL260452510L
aL1671491214L
aL235615214L
aL2202069139L
aL20454553L
aL151898916L
aL413172256L
aL29269473L
aL2282659673L
aL166931895L
aL277758805L
aL269026000L
aL382135190L
aL83152279L
aL870346165L
aL224643119L
aL188864322L
aL16556823L
aL532588988L
aL12675892L
aL298249440L
aL30248306L
aL220967271L
aL104768445L
aL487408046L
aL14582687L
aL57624980L
aL344093400L
aL299483053L
aL135296296L
aL479778128L
aL2363716630L
aL2307783705L
aL359405829L
aL827988577L
aL101096955L
aL255472708L
aL406559185L
aL229549193L
aL310312421L
aL426980631L
aL174287485L
aL1676529126L
aL1234227894L
aL864575629L
aL2347076717L
aL2289448749L
aL93962722L
aL235285786L
aL66089302L
aL338935176L
aL33230351L
aL2360458065L
aL193366711L
aL77715403L
aL36891193L
aL237497616L
aL264467370L
aL257537253L
aL1709652475L
aL29913493L
aL283482685L
aL9202182L
aL835304923L
aL2229288814L
aL385836628L
aL23180063L
aL69326645L
aL94560761L
aL271907486L
aL49372786L
aL269344631L
aL10977452L
aL142498345L
aL398857358L
aL105131469L
aL333979579L
aL1342419031L
aL27028523L
aL2371909958L
aL535639876L
aL209627311L
aL190140307L
aL974006671L
aL123315477L
aL254123581L
aL261616632L
aL1017851670L
aL247794856L
aL190920776L
aL390827504L
aL303428021L
aL951214291L
aL231119545L
aL2392079080L
aL92013849L
aL541071029L
aL507020956L
aL117232299L
aL875164446L
aL187153390L
aL1624713121L
aL276882909L
aL191715920L
aL577477133L
aL228364089L
aL232993154L
aL82499183L
aL538365378L
aL228203275L
aL22127498L
aL588415871L
aL204111076L
aL102744425L
aL142399321L
aL32364370L
aL2372936482L
aL1011824894L
aL24215568L
aL33876321L
aL26421985L
aL14919249L
aL428271582L
aL111336214L
aL127907835L
aL252643480L
aL60393721L
aL100203540L
aL15114099L
aL96583499L
aL287456200L
aL429914949L
aL634491824L
aL387731619L
aL312387751L
aL2173383603L
aL13698072L
aL28514542L
aL248290363L
aL38644403L
aL618448401L
aL808598137L
aL390438045L
aL2382439846L
aL49973392L
aL78440892L
aL1252546604L
aL36196124L
aL30611376L
aL92832122L
aL772444568L
aL92811360L
aL529578106L
aL225038916L
aL48391189L
aL104927788L
aL785395165L
aL577539415L
aL186504093L
aL4622851L
aL61018867L
aL57268555L
aL317250884L
aL18449776L
aL23195391L
aL57347002L
aL23502035L
aL754932019L
aL98785444L
aL482637331L
aL127023487L
aL31944805L
aL141314388L
aL254039403L
aL187176266L
aL991483543L
aL100585415L
aL31300920L
aL919501L
aL50712955L
aL296734401L
aL228502918L
aL38750615L
aL118356883L
aL248584930L
aL259870732L
aL19607925L
aL500929214L
aL296132086L
aL181574517L
aL115204406L
aL15174272L
aL384353539L
aL105339239L
aL118756273L
aL15248294L
aL11442892L
aL19421722L
aL236968027L
aL175259274L
aL126962279L
aL237060003L
aL16808544L
aL1417926236L
aL1570671996L
aL290494420L
aL1612129555L
aL37400701L
aL292703928L
aL1722300236L
aL1284274189L
aL124845078L
aL140961282L
aL192273856L
aL143141997L
aL122238861L
aL21339669L
aL30492203L
aL20037767L
aL342141540L
aL316874655L
aL276843490L
aL230517898L
aL1887665738L
aL2272242059L
aL1013170831L
aL2329560131L
aL164320486L
aL40124215L
aL256948133L
aL867849974L
aL835383452L
aL181736825L
aL241694157L
aL93429560L
aL33307733L
aL14167333L
aL240060385L
aL228712944L
aL365469994L
aL60449713L
aL242023870L
aL51767046L
aL248255590L
aL362670159L
aL375565180L
aL86278907L
aL105087410L
aL1277525125L
aL22662026L
aL290672122L
aL100390645L
aL281576007L
aL558044450L
aL439174197L
aL91289823L
aL1377596413L
aL368564153L
aL426614097L
aL429398324L
aL1225891994L
aL12061042L
aL509086167L
aL1596037154L
aL158064234L
aL341557302L
aL293643533L
aL393909537L
aL569023900L
aL91989639L
aL629252994L
aL835372970L
aL195371843L
aL236857407L
aL27964366L
aL1074099775L
aL2312543645L
aL416948414L
aL117948685L
aL341895167L
aL81656841L
aL584833494L
aL314038899L
aL1457796992L
aL16497593L
aL98192945L
aL9055772L
aL184186025L
aL16694823L
aL2242090684L
aL664473L
aL332619778L
aL16411610L
aL362911225L
aL451444998L
aL133715519L
aL249695026L
aL1666865516L
aL987113748L
aL2262391464L
aL24208809L
aL27201336L
aL1270133341L
aL1220358794L
aL350865463L
aL636433553L
aL331694424L
aL32434307L
aL398213696L
aL252180954L
aL2243075950L
aL210573372L
aL179196640L
aL139596855L
aL406417338L
aL1106804588L
aL289517938L
aL294363847L
aL17893991L
aL408063450L
aL281583814L
aL245501454L
aL555905494L
aL1645594128L
aL1477327428L
aL45438816L
aL1022872376L
aL158084871L
aL477806879L
aL212116652L
aL367363647L
aL204344220L
aL39470828L
aL954166489L
aL1291022089L
aL115945258L
aL390406337L
aL1070773020L
aL129512737L
aL526126151L
aL97643703L
aL36496125L
aL49790277L
aL14068446L
aL381394904L
aL274237651L
aL88152011L
aL199739816L
aL24608545L
aL1156998757L
aL1015326278L
aL35222371L
aL1860527822L
aL279066948L
aL127184962L
aL1073222857L
aL236794025L
aL15281579L
aL26108435L
aL20239047L
aL2166796545L
aL390346286L
aL2359461815L
aL378062753L
aL1185956474L
aL112761668L
aL16113204L
aL134048116L
aL119503054L
aL32468042L
aL1868137916L
aL96649462L
aL306980807L
aL54167548L
aL425790316L
aL236621542L
aL253032506L
aL468657100L
aL1538634944L
aL1498841390L
aL1063076700L
aL594513480L
aL457825033L
aL177619626L
aL366550325L
aL492491691L
aL17893288L
aL80175761L
aL1249614144L
aL97756116L
aL161772433L
aL17166530L
aL14224731L
aL392347271L
aL548446166L
aL1015596900L
aL551316155L
aL1900575896L
aL131462681L
aL332962519L
aL304948830L
aL1825891L
aL126398231L
aL351200827L
aL2283535616L
aL367115473L
aL297998964L
aL65667537L
aL1029633199L
aL18027633L
aL1867212703L
aL577323296L
aL236916179L
aL304374226L
aL38175775L
aL125470201L
aL217580575L
aL154248951L
aL332854632L
aL759698912L
aL2172547998L
aL109684586L
aL388904932L
aL38907844L
aL34265797L
aL1564314061L
aL379658454L
aL437490535L
aL973796977L
aL201683160L
aL491164062L
aL16906984L
aL2320009944L
aL79131223L
aL547577230L
aL12119742L
aL358385252L
aL380843799L
aL1693496028L
aL111691580L
aL58014419L
aL424049400L
aL271326790L
aL103551847L
aL118980742L
aL21613784L
aL301023653L
aL33961633L
aL2202877559L
aL443842407L
aL1120077589L
aL1889697342L
aL1076247956L
aL197707083L
aL552609570L
aL288267615L
aL259688069L
aL19490539L
aL34571662L
aL369578212L
aL215741671L
aL367118198L
aL115975414L
aL348197493L
aL94120768L
aL25443822L
aL1416387666L
aL12315182L
aL1197038522L
aL487025529L
aL117218563L
aL1897152038L
aL2284061125L
aL1580714934L
aL396647653L
aL302996726L
aL23012505L
aL267781431L
aL66451293L
aL160571944L
aL27117061L
aL319775769L
aL21394128L
aL743314808L
aL397942861L
aL351560642L
aL197254887L
aL1483043576L
aL122751862L
aL956316535L
aL546134642L
aL336162384L
aL227606641L
aL1458870494L
aL10140072L
aL2219850409L
aL186239534L
aL791337229L
aL52455654L
aL429025662L
aL20777812L
aL424264367L
aL81690382L
aL395317482L
aL562004519L
aL77007291L
aL351569492L
aL497196369L
aL154492035L
aL420389630L
aL96507248L
aL342971779L
aL434853602L
aL1730225034L
aL1049032320L
aL14258867L
aL615542172L
aL859705915L
aL1309266751L
aL139379097L
aL2210616738L
aL1607905356L
aL1609396765L
aL1511689981L
aL1869467240L
aL294698475L
aL633187523L
aL2223217654L
aL168020451L
aL232981344L
aL1513014650L
aL1333643221L
aL364991831L
aL945604388L
aL174585514L
aL1333569865L
aL268010583L
aL2365318827L
aL359545215L
aL53946026L
aL388548612L
aL1272916058L
aL185475320L
aL178343286L
aL168900699L
aL919526072L
aL623221315L
aL82644750L
aL116123970L
aL48520017L
aL31714982L
aL88263831L
aL1183017871L
aL88048518L
aL101573147L
aL139830575L
aL188355766L
aL29059869L
aL600099289L
aL140772582L
aL794702834L
aL237259507L
aL356011255L
aL348971805L
aL49595078L
aL266617884L
aL132224594L
aL14120461L
aL97028142L
aL1148360077L
aL1688980842L
aL290501117L
aL106505501L
aL176165542L
aL171167757L
aL269482011L
aL389076701L
aL1287081756L
aL425134052L
aL276586997L
aL2199282075L
aL388164218L
aL254595008L
aL278594250L
aL2244109039L
aL222912758L
aL1219672628L
aL1292885629L
aL140909189L
aL1536096506L
aL635121473L
aL133743270L
aL257884280L
aL1032738494L
aL359646514L
aL406184450L
aL30037426L
aL223659771L
aL239352145L
aL274915400L
aL308693476L
aL344351735L
aL439298434L
aL792498103L
aL240722257L
aL22044386L
aL262814770L
aL2233227541L
aL419092689L
aL142469171L
aL58026451L
aL137459155L
aL1645832461L
aL389189100L
aL2383654529L
aL378766706L
aL149945772L
aL48706397L
aL143779026L
aL94073265L
aL305103099L
aL179636617L
aL121537359L
aL588062579L
aL1128995522L
aL162392186L
aL1076919528L
aL322267056L
aL422224808L
aL134726292L
aL228380134L
aL473371916L
aL2357147525L
aL108887225L
aL97593656L
aL65356864L
aL35856589L
aL360347629L
aL73637070L
aL1966505155L
aL2149199534L
aL150473119L
aL403667373L
aL81448614L
aL92071380L
aL381848573L
aL21556545L
aL76480043L
aL90586528L
aL38628410L
aL162888993L
aL348445468L
aL1228278319L
aL20011307L
aL19088871L
aL1918447346L
aL769222945L
aL49616368L
aL392495497L
aL2343965545L
aL159993615L
aL390613935L
aL144176515L
aL840474866L
aL154082631L
aL853202834L
aL41135304L
aL315403613L
aL136419324L
aL408693434L
aL2279243403L
aL590369130L
aL16626630L
aL116085727L
aL329613428L
aL2291790863L
aL18632224L
aL134911305L
aL1171546866L
aL133366702L
aL409429147L
aL340228553L
aL528784145L
aL216036779L
aL280176886L
aL117364453L
aL2259988754L
aL151827051L
aL131178507L
aL71193744L
aL408938718L
aL89506663L
aL142011109L
aL1438152272L
aL82579423L
aL299061465L
aL2200331127L
aL413332388L
aL2337098060L
aL238062022L
aL23166886L
aL212663598L
aL355786488L
aL149919048L
aL483151359L
aL45820472L
aL995333396L
aL137003770L
aL82593795L
aL535525291L
aL2389316392L
aL77530521L
aL215916384L
aL113708450L
aL308545810L
aL1354971030L
aL805348147L
aL279192655L
aL1525719553L
aL1869137738L
aL2210731056L
aL2214116346L
aL1869380292L
aL2214077665L
aL2210608370L
aL1525776175L
aL858288332L
aL253148694L
aL1613255833L
aL1185920592L
aL165004883L
aL315256779L
aL485957835L
aL368390776L
aL897132368L
aL210913452L
aL476052048L
aL1012393148L
aL306967979L
aL249883748L
aL966882192L
aL48441032L
aL394240269L
aL41566069L
aL368914978L
aL181683028L
aL389038495L
aL2213242972L
aL1131511106L
aL1036822370L
aL1903623770L
aL1504024428L
aL1361634884L
aL860219274L
aL826943156L
aL548648348L
aL1584860520L
aL380918400L
aL192047887L
aL145358578L
aL283655818L
aL1017667801L
aL326661305L
aL1157299040L
aL2340978936L
aL372093252L
aL286359272L
aL1941760800L
aL210907790L
aL1292070266L
aL1701314437L
aL39374657L
aL1454231394L
aL1931526548L
aL171482395L
aL174410417L
aL1573620596L
aL1292385044L
aL2292224085L
aL67179481L
aL703764516L
aL1736056075L
aL247694065L
aL479805144L
aL146505285L
aL2209719961L
aL297784960L
aL890560398L
aL331632008L
aL402658112L
aL278897345L
aL2331773197L
aL42936327L
aL476822767L
aL1710262663L
aL487000445L
aL414103272L
aL433574916L
aL786421087L
aL15873946L
aL1105888579L
aL123131208L
aL476653377L
aL938878224L
aL126527762L
aL169963898L
aL403293960L
aL317735555L
aL246017092L
aL275720408L
aL187166749L
aL547664178L
aL400085487L
aL160805423L
aL18950408L
aL2178708988L
aL916767192L
aL131514704L
aL1278208550L
aL20104882L
aL376005033L
aL928712431L
aL1149273835L
aL1527203724L
aL856464913L
aL26801513L
aL1032671779L
aL301024457L
aL84890964L
aL23521289L
aL1143755983L
aL187874166L
aL241112136L
aL317294901L
aL121265802L
aL156891379L
aL27078217L
aL523297311L
aL187182254L
aL298430785L
aL211222289L
aL335301666L
aL957699457L
aL915104575L
aL77125998L
aL1251922819L
aL935335652L
aL145730115L
aL271367261L
aL410868363L
aL507733979L
aL330240262L
aL256613678L
aL172386030L
aL310869977L
aL1242443083L
aL274515005L
aL21989675L
aL609662517L
aL78551770L
aL250145762L
aL1183907076L
aL2322242949L
aL1558155764L
aL83935578L
aL796025857L
aL318415139L
aL318948450L
aL34928099L
aL29874585L
aL357512318L
aL271542182L
aL1915083900L
aL303490626L
aL1184159234L
aL557690694L
aL368229909L
aL143808346L
aL196732230L
aL174298166L
aL1053651811L
aL465002369L
aL986470340L
aL261980536L
aL91541686L
aL340418086L
aL182578010L
aL377546568L
aL1387619214L
aL574342802L
aL214257479L
aL202832095L
aL8641682L
aL306285263L
aL140345235L
aL348014996L
aL447225088L
aL83334528L
aL212958178L
aL1109699844L
aL270040930L
aL202758318L
aL290193281L
aL457436110L
aL2346864423L
aL215376712L
aL507679060L
aL192878483L
aL1248538807L
aL14224672L
aL378601046L
aL368408688L
aL121874204L
aL1376591036L
aL792536682L
aL124120727L
aL217716278L
aL454045010L
aL884824484L
aL1114597147L
aL978927534L
aL1114699832L
aL104548312L
aL1966352959L
aL548641254L
aL1364207886L
aL1123153417L
aL100735712L
aL260428644L
aL131183483L
aL522892690L
aL421973148L
aL359382281L
aL245926739L
aL2362670216L
aL1066378874L
aL387072644L
aL192070293L
aL222294014L
aL146207024L
aL55881684L
aL717265017L
aL390697552L
aL189189507L
aL1971606968L
aL1276925323L
aL1671357254L
aL36987677L
aL860205096L
aL24487865L
aL1033743888L
aL528324415L
aL2285007224L
aL306731910L
aL408562523L
aL503084766L
aL370838622L
aL145087686L
aL292470105L
aL1404528326L
aL1539201439L
aL1336737180L
aL303739576L
aL2361766409L
aL1122773328L
aL382338250L
aL241913355L
aL79518959L
aL2209248007L
aL305236970L
aL1406324053L
aL1897674846L
aL557897089L
aL1066071158L
aL1440517507L
aL130430040L
aL157305087L
aL44321197L
aL1926453132L
aL1144927560L
aL401303461L
aL2320701764L
aL95210434L
aL257164238L
aL2184208893L
aL310453037L
aL433906732L
aL302042616L
aL402692584L
aL508977205L
aL128648069L
aL1275706506L
aL348776365L
aL2260162093L
aL2266116840L
aL29953660L
aL84883140L
aL984810222L
aL108076220L
aL2203274571L
aL465797535L
aL82851434L
aL770076841L
aL19177959L
aL1315008840L
aL35742353L
aL2375542239L
aL1961276468L
aL228731555L
aL2157439057L
aL902768790L
aL111588304L
aL2368648522L
aL2210293794L
aL93080859L
aL1032360475L
aL382947931L
aL235250490L
aL393391856L
aL1723496576L
aL2341649206L
aL574551474L
aL2161995638L
aL143575632L
aL40875922L
aL988588922L
aL269906232L
aL2398897713L
aL841888069L
aL2397185393L
aL85060556L
aL389438644L
aL1473985014L
aL102781487L
aL1833960078L
aL216587262L
aL292364008L
aL2291428594L
aL374170720L
aL379865572L
aL2195098846L
aL1019776338L
aL2162679080L
aL1364018060L
aL462987364L
aL1229333918L
aL805693188L
aL131946542L
aL2296333788L
aL775558465L
aL97027548L
aL24759060L
aL459569129L
aL1947710642L
aL154200497L
aL430811981L
aL374421663L
aL316645911L
aL1593087229L
aL101780165L
aL189834991L
aL1687162093L
aL844091142L
aL174972216L
aL19772429L
aL522054647L
aL2382097454L
aL970101882L
aL912226376L
aL519869932L
aL376656016L
aL2271899669L
aL9733432L
aL1513522081L
aL63826660L
aL176444044L
aL169818796L
aL937098618L
aL546512644L
aL400611136L
aL1036788019L
aL592084569L
aL108713515L
aL1256602561L
aL406351498L
aL1367980350L
aL293432721L
aL243093977L
aL1145648916L
aL974616896L
aL369919068L
aL2373146669L
aL92940073L
aL1555482066L
aL1533399284L
aL513180657L
aL904438754L
aL62271074L
aL531122547L
aL1715749542L
aL353572231L
aL408704922L
aL1552935984L
aL327304882L
aL9222512L
aL851304342L
aL382135231L
aL989627965L
aL312703659L
aL1034828870L
aL1591250816L
aL1231694341L
aL93858015L
aL2332935988L
aL1048013010L
aL63256574L
aL579850651L
aL8678132L
aL1721835618L
aL104048877L
aL321315283L
a.