(lp0
L1941361225L
aL340813392L
aL198429804L
aL2260829686L
aL234929412L
aL222475722L
aL376070429L
aL327969115L
aL397886770L
aL527270217L
aL14314686L
aL159279049L
aL48849244L
aL1370672155L
aL392089352L
aL1728446474L
aL976305882L
aL913168266L
aL163877216L
aL217391493L
aL120894487L
aL780015906L
aL144511894L
aL1481960768L
aL104878447L
aL106429166L
aL335916654L
aL389403349L
aL491167846L
aL100249888L
aL53906731L
aL12453522L
aL79011760L
aL515650167L
aL16199823L
aL86693223L
aL151106599L
aL78581629L
aL432670711L
aL403898809L
aL343818243L
aL146585037L
aL2369250856L
aL993619346L
aL41251742L
aL285738586L
aL259219704L
aL20368493L
aL169488436L
aL14361715L
aL172415545L
aL434950110L
aL2257862855L
aL130114910L
aL2348398967L
aL199376077L
aL15155114L
aL436187994L
aL1588438674L
aL2300436718L
aL187533754L
aL91018827L
aL2187181661L
aL1277575386L
aL234504218L
aL387267483L
aL54943454L
aL424862897L
aL382050930L
aL310193562L
aL94975546L
aL284547694L
aL1066669266L
aL519616010L
aL74966140L
aL1411326985L
aL434149426L
aL475306019L
aL54484834L
aL194392713L
aL130429271L
aL489553513L
aL421439540L
aL2187936425L
aL279521944L
aL382539264L
aL557962098L
aL582749764L
aL1002794994L
aL408661651L
aL1548961310L
aL1567930050L
aL149165786L
aL383277242L
aL291363076L
aL15072454L
aL273988992L
aL81197112L
aL316999241L
aL92332638L
aL386445148L
aL873552223L
aL1275760988L
aL754893L
aL156658316L
aL67564253L
aL436145920L
aL345684458L
aL1700510880L
aL67598400L
aL353906833L
aL231543935L
aL884793516L
aL357505838L
aL2269411582L
aL2353756541L
aL398647055L
aL398803502L
aL226539877L
aL285472719L
aL1171358640L
aL368850293L
aL115981785L
aL162210488L
aL331766165L
aL310415536L
aL11659262L
aL835894628L
aL967960070L
aL133461180L
aL19281601L
aL728568216L
aL397310089L
aL498205332L
aL246585652L
aL383749462L
aL242863276L
aL2256372456L
aL166613427L
aL209530299L
aL388528794L
aL2174886429L
aL2324343555L
aL309556947L
aL133391525L
aL1007430704L
aL282110754L
aL159846046L
aL80611731L
aL845309017L
aL1026285158L
aL1610829276L
aL1568572050L
aL402911325L
aL522522832L
aL10286732L
aL136281621L
aL1883127770L
aL422511634L
aL291755729L
aL28522166L
aL487547909L
aL1168387579L
aL17508269L
aL352732904L
aL131205494L
aL222098433L
aL1482927091L
aL326298177L
aL31102560L
aL258299801L
aL412973264L
aL88414601L
aL368381235L
aL1083084487L
aL186593878L
aL19358428L
aL255921968L
aL421754861L
aL229783431L
aL186761951L
aL1595823776L
aL35725291L
aL4922341L
aL118731516L
aL137254870L
aL258316430L
aL189123226L
aL1155527041L
aL92735909L
aL446309156L
aL54143759L
aL439907509L
aL31890504L
aL1037819534L
aL109200622L
aL2322438929L
aL1136314472L
aL394957363L
aL1443750158L
aL27223152L
aL77032345L
aL358283434L
aL1885782650L
aL2360862683L
aL39459681L
aL41329034L
aL769985L
aL318656416L
aL26500511L
aL168582410L
aL1908625034L
aL387570170L
aL1038964970L
aL2395397968L
aL190192266L
aL148022668L
aL291403211L
aL393044878L
aL236040981L
aL396496206L
aL97281454L
aL33670689L
aL272472574L
aL76661331L
aL2314669870L
aL42371742L
aL386152884L
aL66315585L
aL8630942L
aL118646651L
aL138736701L
aL509931696L
aL21477834L
aL515351169L
aL1104415555L
aL27333257L
aL999315187L
aL159211716L
aL2360362769L
aL2348983612L
aL15341960L
aL109242412L
aL2203701820L
aL15968004L
aL946205412L
aL339281804L
aL2166414110L
aL21859391L
aL392741531L
aL480583014L
aL83441997L
aL93705477L
aL29728350L
aL98215220L
aL251686984L
aL365721412L
aL24504702L
aL321021198L
aL290472018L
aL117575584L
aL334591309L
aL478163964L
aL110957593L
aL16612015L
aL1037603641L
aL24346799L
aL2188498473L
aL496192823L
aL418640246L
aL249167257L
aL25343203L
aL41544005L
aL1545166412L
aL624603613L
aL392959441L
aL1304569848L
aL330399043L
aL152035396L
aL244954512L
aL79148286L
aL16883353L
aL1482693858L
aL413754635L
aL1180241L
aL388892899L
aL2307319170L
aL178672667L
aL1230117870L
aL79827906L
aL561422137L
aL999193873L
aL1242568765L
aL341984426L
aL207482968L
aL260656713L
aL20169878L
aL488439052L
aL396773751L
aL810515240L
aL407062660L
aL120935793L
aL10027162L
aL119099353L
aL16297777L
aL14316644L
aL66461905L
aL373062012L
aL2361657307L
aL14703893L
aL14335321L
aL1222483976L
aL79385667L
aL2304164031L
aL88014506L
aL136238828L
aL22637980L
aL320443952L
aL283601357L
aL296490638L
aL44697203L
aL343197788L
aL271865832L
aL513399605L
aL322933929L
aL221147459L
aL254947242L
aL157295103L
aL164231702L
aL342296335L
aL1268179232L
aL501059330L
aL1601316937L
aL25868679L
aL83941845L
aL35721171L
aL287618793L
aL1068068108L
aL394697369L
aL36169773L
aL450010908L
aL104484195L
aL114722385L
aL82345253L
aL510606361L
aL42954145L
aL163503103L
aL189517025L
aL326410723L
aL1392194779L
aL33521233L
aL186849333L
aL2262028973L
aL2204525901L
aL2363038757L
aL116392054L
aL446273030L
aL304592893L
aL2361547576L
aL424153335L
aL96142424L
aL1246885932L
aL1386907261L
aL111362464L
aL504556229L
aL90867190L
aL165854996L
aL1140997898L
aL516469323L
aL165329180L
aL38196064L
aL425685576L
aL25092976L
aL2399352707L
aL1544128921L
aL365471708L
aL100730453L
aL300726406L
aL950641831L
aL310727708L
aL2313599758L
aL452168010L
aL123373358L
aL329277011L
aL82628159L
aL34256587L
aL483756354L
aL31425913L
aL112198719L
aL1041465072L
aL176136869L
aL150639227L
aL203925129L
aL159917297L
aL202220952L
aL2353276534L
aL248140548L
aL379155578L
aL777653947L
aL2201291575L
aL865081903L
aL1202247139L
aL15515154L
aL837412428L
aL392734987L
aL55243475L
aL31433475L
aL426478474L
aL260110987L
aL319602419L
aL111499193L
aL1008804132L
aL594163122L
aL2311596802L
aL308608895L
aL2355469006L
aL45435720L
aL2335925909L
aL501036609L
aL370597704L
aL109652224L
aL853668889L
aL17582907L
aL1653520999L
aL29041936L
aL1585566860L
aL221833245L
aL107517248L
aL2256937623L
aL98377121L
aL175078581L
aL2292244449L
aL2264186037L
aL1933706220L
aL1359935282L
aL592327501L
aL88461658L
aL434266611L
aL14145846L
aL388884982L
aL331343701L
aL238051161L
aL2356722810L
aL155840252L
aL529725968L
aL807662096L
aL2353128657L
aL932622344L
aL231440274L
aL550137726L
aL229393681L
aL246206073L
aL1229329422L
aL297026600L
aL67935330L
aL18749668L
aL312830796L
aL358089042L
aL1095417751L
aL480292642L
aL403263803L
aL799217251L
aL2162748499L
aL129133245L
aL169736277L
aL150367937L
aL1341692490L
aL181182592L
aL316393390L
aL234973707L
aL2373932721L
aL1978362584L
aL497220677L
aL100831486L
aL437437146L
aL386659190L
aL593829594L
aL2233203519L
aL1938062029L
aL1553720594L
aL232104729L
aL2396257384L
aL223905135L
aL831105968L
aL2216174384L
aL140910301L
aL425912287L
aL189271748L
aL312303116L
aL127916193L
aL408388440L
aL397448964L
aL315854388L
aL701876786L
aL373908687L
aL2393955809L
aL1040167027L
aL1479592794L
aL162317442L
aL188502011L
aL255641937L
aL219236497L
aL382606319L
aL19056819L
aL329608783L
aL121833054L
aL111993038L
aL150011508L
aL454328291L
aL924356864L
aL397578136L
aL2173577261L
aL208715449L
aL84300449L
aL2272813612L
aL24259374L
aL361802576L
aL184855292L
aL412366608L
aL2308016651L
aL955640022L
aL50596218L
aL1394404224L
aL38398195L
aL586420094L
aL1000073702L
aL605675354L
aL227042507L
aL147658060L
aL296963363L
aL91817425L
aL198185253L
aL827630401L
aL402974768L
aL520569266L
aL421951973L
aL447835400L
aL1041871652L
aL398856557L
aL2163217264L
aL134896658L
aL22939133L
aL1254690164L
aL259731992L
aL624571314L
aL15610207L
aL234091065L
aL389395835L
aL1356707138L
aL702708719L
aL361956949L
aL384989541L
aL320079811L
aL305115964L
aL18917087L
aL243521732L
aL10059372L
aL193843112L
aL263775424L
aL405805643L
aL390296425L
aL383752674L
aL152198281L
aL478496611L
aL102042635L
aL407929460L
aL861411782L
aL76983449L
aL23481109L
aL12133302L
aL122964740L
aL417715010L
aL476662726L
aL428522021L
aL16129847L
aL1086872066L
aL123970396L
aL292482965L
aL369144333L
aL1587045570L
aL28540433L
aL2239324774L
aL1013618780L
aL21768907L
aL1119124874L
aL15737191L
aL1327460108L
aL259880935L
aL416482309L
aL21766011L
aL528651038L
aL557136384L
aL340972113L
aL775936850L
aL469495415L
aL443092953L
aL173857718L
aL1037177568L
aL2298328155L
aL1111096692L
aL1066005014L
aL1890293305L
aL8854752L
aL1897116236L
aL2291578979L
aL374178808L
aL8471512L
aL188302647L
aL96438136L
aL835169534L
aL1489887097L
aL302550459L
aL371139259L
aL933995203L
aL512322055L
aL477031880L
aL168271911L
aL2176208741L
aL1907733235L
aL399394547L
aL15253960L
aL1628563177L
aL1002194779L
aL1216209428L
aL43330239L
aL415095907L
aL15456063L
aL383144918L
aL318491690L
aL1699722319L
aL234326620L
aL151140431L
aL185977604L
aL533108984L
aL1410079608L
aL324779514L
aL835981963L
aL1667054376L
aL372754879L
aL501657092L
aL214431910L
aL388890122L
aL1120513448L
aL1896628724L
aL198444423L
aL368569325L
aL345637870L
aL10653272L
aL1521870788L
aL488187590L
aL837766777L
aL56616969L
aL1369244094L
aL392743427L
aL852192864L
aL1608431238L
aL142676226L
aL36957302L
aL790323728L
aL28548113L
aL866216112L
aL93228081L
aL217332857L
aL1728294830L
aL148679018L
aL194624682L
aL11849972L
aL130793905L
aL149641296L
aL2229167411L
aL380526746L
aL26506295L
aL50617173L
aL165962443L
aL165749747L
aL1039697468L
aL1356366900L
aL2314439313L
aL50241910L
aL2369067293L
aL1017729836L
aL524801382L
aL328185426L
aL2178185243L
aL390983842L
aL2340729714L
aL393438193L
aL88477338L
aL38740886L
aL1194855907L
aL335240263L
aL17942169L
aL2199005837L
aL1076319888L
aL89191282L
aL976472947L
aL1248215910L
aL1522656120L
aL2358376228L
aL327200316L
aL286324749L
aL226177325L
aL379727574L
aL1129326349L
aL79116387L
aL167336035L
aL229247023L
aL284405556L
aL1406123407L
aL1979357646L
aL786445441L
aL551089120L
aL486364968L
aL357816320L
aL400300041L
aL914926621L
aL388785195L
aL462104272L
aL2352971396L
aL1441528165L
aL968031846L
aL72061994L
aL458609433L
aL60398437L
aL1142300029L
aL218263661L
aL9156392L
aL5762232L
aL484130703L
aL399694551L
aL433519434L
aL705148568L
aL164294854L
aL2325250364L
aL418143556L
aL1041889466L
aL40512686L
aL19533771L
aL141930973L
aL192529976L
aL452841863L
aL1366859605L
aL1329308419L
aL533333123L
aL314800394L
aL146832612L
aL991544282L
aL206394776L
aL1344088633L
aL16400751L
aL795608707L
aL2263036178L
aL103240595L
aL44870553L
aL28014001L
aL95473310L
aL411066790L
aL1332047130L
aL270851248L
aL1545601964L
aL474310334L
aL2372184704L
aL512185353L
aL197580733L
aL117753420L
aL6742152L
aL500658093L
aL96312573L
aL1961025138L
aL423619871L
aL270501989L
aL101062380L
aL2294592825L
aL482315307L
aL408383348L
aL29012216L
aL708614839L
aL408049540L
aL99838806L
aL436822591L
aL1295584778L
aL8411862L
aL369469778L
aL343913545L
aL113315121L
aL84946787L
aL944410776L
aL302436233L
aL38270308L
aL410898712L
aL286036210L
aL1900377428L
aL38658065L
aL522361919L
aL1542795356L
aL1499509530L
aL77501971L
aL1497636950L
aL339559937L
aL379606805L
aL1105944535L
aL2234700123L
aL1459770974L
aL356275779L
aL561917556L
aL80361181L
aL467479341L
aL176378438L
aL106946739L
aL2371147881L
aL214865552L
aL121520938L
aL34032476L
aL180145636L
aL29189189L
aL2303572406L
aL964396386L
aL80040362L
aL79772878L
aL245709935L
aL92099837L
aL514142658L
aL1325020628L
aL55560637L
aL2261631678L
aL137637949L
aL123943257L
aL41082669L
aL237295522L
aL2299638273L
aL260253154L
aL2376521391L
aL1407026935L
aL11410852L
aL353606112L
aL955418240L
aL1403487236L
aL450919049L
aL380852967L
aL1528756680L
aL11282L
aL96186373L
aL817867370L
aL915531224L
aL303740148L
aL101347790L
aL600180110L
aL70966122L
aL343359808L
aL302477206L
aL1142534437L
aL109828296L
aL384011155L
aL1233675559L
aL2305798923L
aL2312299092L
aL2363754489L
aL426035469L
aL90599361L
aL385977088L
aL331186510L
aL551972871L
aL159422780L
aL97199591L
aL8899322L
aL625113615L
aL116426354L
aL383209213L
aL9879172L
aL404106396L
aL69366533L
aL522195852L
aL2367661179L
aL8881562L
aL1019468340L
aL409118790L
aL404963563L
aL2279434739L
aL710284428L
aL229753610L
aL143173253L
aL2315946076L
aL204513558L
aL159965136L
aL2393608349L
aL132857798L
aL254192443L
aL165399661L
aL525555027L
aL376302001L
aL248812914L
aL198943751L
aL219364143L
aL421743295L
aL135173730L
aL1207084729L
aL1901730792L
aL378771287L
aL358204633L
aL989600563L
aL279047637L
aL2334093309L
aL149248959L
aL1146337897L
aL174715860L
aL167767028L
aL2149720079L
aL864661074L
aL71161207L
aL1209919196L
aL397335822L
aL2267915410L
aL531573551L
aL486946704L
aL634155256L
aL255641259L
aL152245437L
aL166475476L
aL631812427L
aL99241620L
aL2265538072L
aL1574615358L
aL1619954995L
aL1080259472L
aL7734282L
aL295902071L
aL845052836L
aL2336613785L
aL232751730L
aL1659784278L
aL149805125L
aL366193235L
aL2392552865L
aL1362607897L
aL15056633L
aL39829984L
aL802035698L
aL360664435L
aL305709611L
aL85637186L
aL874130924L
aL74476334L
aL181584013L
aL494903381L
aL378485953L
aL868635674L
aL2367457614L
aL1867969908L
aL899767291L
aL1094561498L
aL350183301L
aL24150879L
aL1897068710L
aL98733050L
aL187251153L
aL248849057L
aL81987174L
aL87002944L
aL248140028L
aL407778006L
aL122014428L
aL523476145L
aL84201116L
aL1960650961L
aL234750006L
aL829311L
aL485050455L
aL1332000834L
aL789974527L
aL222281915L
aL2371543546L
aL2359033920L
aL107700611L
aL2349263937L
aL1014320088L
aL84319775L
aL127878341L
aL886825298L
aL363261340L
aL487079783L
aL842933336L
aL113631430L
aL513379994L
aL239805013L
aL396600361L
aL468753917L
aL310195841L
aL86507069L
aL392601230L
aL136627091L
aL375125757L
aL3015121L
aL1726436594L
aL1139588958L
aL237966131L
aL18161203L
aL211205977L
aL840404406L
aL900357553L
aL1919656890L
aL39643490L
aL334519734L
aL230125340L
aL505907264L
aL400030972L
aL198574013L
aL2220318389L
aL172715535L
aL961706527L
aL80329763L
aL222599415L
aL473267940L
aL382579638L
aL98405198L
aL22002631L
aL433438505L
aL71796091L
aL57963503L
aL26727302L
aL1219124822L
aL33502178L
aL848125038L
aL2358208187L
aL292601550L
aL183175739L
aL880227066L
aL65197584L
aL1052335884L
aL1324495586L
aL331164529L
aL2345236391L
aL29694342L
aL609013L
aL2278788459L
aL1246620638L
aL358936118L
aL2250099837L
aL37028467L
aL58002282L
aL1161427868L
aL1513179378L
aL2195693534L
aL42479153L
aL564693328L
aL593604535L
aL379238364L
aL1400790986L
aL37514145L
aL2304887233L
aL148481393L
aL1612787396L
aL173881160L
aL5480462L
aL385338962L
aL134210794L
aL33161636L
aL1048647380L
aL409251829L
aL395261114L
aL1476999348L
aL2239813189L
aL53074594L
aL28188093L
aL177128935L
aL823853682L
aL34299338L
aL19708639L
aL291101274L
aL172086879L
aL286377995L
aL135109669L
aL304342299L
aL23310272L
aL372422371L
aL66838217L
aL506109431L
aL81692789L
aL1269702548L
aL947892456L
aL563987903L
aL400207000L
aL2343534179L
aL1386555194L
aL1726637498L
aL304933188L
aL26515595L
aL84582746L
aL776229258L
aL135174631L
aL346422868L
aL132501066L
aL839894179L
aL178471166L
aL2301093934L
aL384896368L
aL437615845L
aL225898413L
aL1360182662L
aL394924129L
aL1704301532L
aL137030093L
aL110390706L
aL305701187L
aL236752613L
aL289821892L
aL138052071L
aL251043237L
aL397313469L
aL1260171894L
aL2318392703L
aL16903912L
aL43536987L
aL2205194564L
aL401648292L
aL77823743L
aL250192500L
aL1010675748L
aL917506844L
aL10660702L
aL419068833L
aL19706625L
aL2371058487L
aL2331567348L
aL15156391L
aL381059154L
aL1596393012L
aL2338352144L
aL103318808L
aL17786680L
aL123514831L
aL1286501292L
aL207601152L
aL406222194L
aL1320997778L
aL376398888L
aL272326140L
aL312163086L
aL37676628L
aL321467589L
aL339869021L
aL790492537L
aL384198953L
aL272920239L
aL265956337L
aL14253707L
aL1386348194L
aL1227247716L
aL868681170L
aL280525283L
aL2232268001L
aL2186602543L
aL1096571384L
aL535315520L
aL2297901111L
aL1140739681L
aL157734954L
aL2162850403L
aL158795373L
aL523680032L
aL2382410596L
aL167031014L
aL2245408678L
aL30645692L
aL396646406L
aL1645961516L
aL364253446L
aL297639162L
aL479404619L
aL37282286L
aL399075857L
aL16326777L
aL158367065L
aL1234696879L
aL1232356836L
aL1093373731L
aL284142000L
aL1233775843L
aL186376834L
aL391301130L
aL736869577L
aL1057855022L
aL356529179L
aL41126119L
aL606764219L
aL2372221154L
aL528477296L
aL21522017L
aL428905606L
aL493297817L
aL596815972L
aL357150376L
aL409192079L
aL103130642L
aL17944977L
aL998980705L
aL185998557L
aL1598925985L
aL149693532L
aL1324197673L
aL202529008L
aL18139887L
aL243592267L
aL187864427L
aL1636075262L
aL54556442L
aL330392789L
aL67259522L
aL428134634L
aL395519194L
aL104099742L
aL1627897386L
aL1324850059L
aL28176390L
aL1400768496L
aL226868872L
aL328985331L
aL751871958L
aL1298956886L
aL1475068422L
aL432700496L
aL113365129L
aL496503607L
aL1158217136L
aL2295286715L
aL1151624496L
aL187574396L
aL51409071L
aL1554098461L
aL140363073L
aL456743830L
aL1013662226L
aL2282126919L
aL389618288L
aL231133590L
aL411648784L
aL409360731L
aL404290841L
aL705366972L
aL99049951L
aL1364757504L
aL45845276L
aL289952366L
aL432468531L
aL321313255L
aL39092829L
aL289872881L
aL14461963L
aL2302933374L
aL14423628L
aL121107099L
aL385647175L
aL1153539919L
aL349341655L
aL257988680L
aL77720072L
aL52504430L
aL321806814L
aL21293599L
aL197837706L
aL1464565376L
aL213303273L
aL53505396L
aL168593101L
aL8810272L
aL42754744L
aL142929793L
aL29166558L
aL1615709940L
aL2210531328L
aL250639937L
aL154863403L
aL406994334L
aL97603847L
aL1483804687L
aL2165039311L
aL267568335L
aL1654484840L
aL204789068L
aL964346929L
aL403677640L
aL75310469L
aL279560298L
aL125070146L
aL53747882L
aL148500652L
aL2363060575L
aL280605221L
aL69617984L
aL548494597L
aL1532118218L
aL130260339L
aL167377714L
aL19290070L
aL16410700L
aL134579573L
aL35229877L
aL249096301L
aL1653747558L
aL7950242L
aL337196728L
aL988594298L
aL10282412L
aL18077049L
aL391970654L
aL29209496L
aL32909043L
aL154928152L
aL374693L
aL253776488L
aL51064308L
aL56957769L
aL22521283L
aL59867238L
aL2265900215L
aL384021374L
aL369740012L
aL232125384L
aL22035588L
aL131883284L
aL47926856L
aL43759188L
aL12167832L
aL230558097L
aL148853292L
aL170721030L
aL841413391L
aL398426351L
aL411689177L
aL426150557L
aL93029564L
aL802515553L
aL536665907L
aL528232116L
aL567551768L
aL1012571725L
aL397320325L
aL103230195L
aL40973060L
aL126935365L
aL267210970L
aL1637555172L
aL443805562L
aL390395891L
aL1047330996L
aL1479990848L
aL98405440L
aL1085269940L
aL289494239L
aL296516376L
aL27860732L
aL2368809647L
aL407727974L
aL991544024L
aL413321667L
aL2382748282L
aL2242412816L
aL14626598L
aL340068583L
aL1458044330L
aL714563629L
aL68678616L
aL1262429334L
aL1956943933L
aL368957701L
aL314321740L
aL430072010L
aL240698630L
aL567601338L
aL291290779L
aL27210668L
aL991186626L
aL177843351L
aL161975169L
aL216780362L
aL392841664L
aL87429680L
aL988467001L
aL105523936L
aL740981504L
aL567147687L
aL822952404L
aL375099083L
aL2230417526L
aL1600863116L
aL74976289L
aL83128392L
aL85615749L
aL142612665L
aL545051185L
aL128693080L
aL22608918L
aL60902384L
aL157081903L
aL372263758L
aL2326706879L
aL38216135L
aL295532665L
aL114046049L
aL46128162L
aL540039058L
aL502149523L
aL40882761L
aL1266713377L
aL427317763L
aL823589712L
aL2203242741L
aL482123225L
aL256660575L
aL10408392L
aL2273259169L
aL38406846L
aL1627526659L
aL491755575L
aL355892864L
aL309448650L
aL82912424L
aL267358219L
aL1029483290L
aL2173845655L
aL17497509L
aL107775064L
aL462671537L
aL2308205746L
aL8909992L
aL255983841L
aL1099360436L
aL44661088L
aL240015563L
aL225016937L
aL98871827L
aL90674937L
aL12921092L
aL317236384L
aL486550813L
aL464925545L
aL211005053L
aL348135744L
aL882381698L
aL401841233L
aL298399986L
aL1318484941L
aL871833150L
aL42472197L
aL268608292L
aL317858250L
aL164214636L
aL235445144L
aL2328843221L
aL562832381L
aL386003993L
aL2301979672L
aL341520428L
aL287333205L
aL1880252118L
aL14474983L
aL2329055431L
aL1308103964L
aL75997219L
aL2281685434L
aL541907695L
aL9847392L
aL2189171726L
aL49830971L
aL47663009L
aL1057161192L
aL447066768L
aL374221869L
aL441876627L
aL1531264344L
aL2216107764L
aL897281797L
aL292113283L
aL163118042L
aL132211267L
aL72273683L
aL22463885L
aL1396677506L
aL310354809L
aL28434730L
aL42316043L
aL250344985L
aL2268435619L
aL27721194L
aL167777937L
aL425997349L
aL392671371L
aL2377238738L
aL14296346L
aL401718459L
aL197375223L
aL289948523L
aL108096033L
aL94414537L
aL1381565204L
aL301682908L
aL29522096L
aL911756210L
aL249587909L
aL38631437L
aL2360509048L
aL102853924L
aL45942804L
aL2372306698L
aL386429497L
aL2291417202L
aL1193240226L
aL43081679L
aL127993661L
aL1284293652L
aL46454146L
aL88384923L
aL113594636L
aL46515179L
aL86777701L
aL146650296L
aL207664548L
aL1086370244L
aL716984766L
aL15108909L
aL2373066203L
aL289025387L
aL163400431L
aL355948950L
aL1462337636L
aL749232116L
aL1124817488L
aL1370059806L
aL104004558L
aL343977827L
aL2161072678L
aL139781574L
aL2178647285L
aL426083217L
aL20437369L
aL256046595L
aL500960393L
aL32702001L
aL1320574388L
aL169501289L
aL308672382L
aL40244378L
aL55333479L
aL283288265L
aL24184270L
aL304618852L
aL149703187L
aL67153126L
aL385009570L
aL35038759L
aL40645394L
aL50463628L
aL396733557L
aL259499605L
aL1169256476L
aL535485524L
aL1699920997L
aL319339023L
aL1580032333L
aL443712975L
aL353156553L
aL412663293L
aL85431718L
aL610232479L
aL420656369L
aL83933691L
aL382954900L
aL324435281L
aL364425228L
aL95458471L
aL388410673L
aL513890490L
aL238446215L
aL17018429L
aL126591720L
aL232079601L
aL924750434L
aL21421331L
aL396099815L
aL318558026L
aL1337656321L
aL2370039142L
aL433570669L
aL426109972L
aL2155634647L
aL1118844241L
aL2388388751L
aL1341147450L
aL535862636L
aL348773257L
aL1709453209L
aL284459925L
aL1000187882L
aL235833201L
aL87964051L
aL466436603L
aL380349400L
aL57335099L
aL576315109L
aL1672799384L
aL53977303L
aL377469668L
aL604557113L
aL346141762L
aL858001394L
aL125429123L
aL252233219L
aL8128482L
aL106133073L
aL101550023L
aL1951988856L
aL49953922L
aL37398685L
aL479004334L
aL450834110L
aL36633390L
aL2256457612L
aL475912506L
aL290494121L
aL427793721L
aL208694843L
aL312175988L
aL631872854L
aL311695764L
aL444939210L
aL2285385621L
aL1099394605L
aL1284546463L
aL1130758309L
aL380116667L
aL220778262L
aL407735931L
aL407120059L
aL15579285L
aL14119087L
aL2190243963L
aL403295541L
aL2322129796L
aL429865938L
aL1384298689L
aL249870062L
aL14431633L
aL299123837L
aL85759962L
aL1137919670L
aL55260905L
aL194960902L
aL164233814L
aL427061578L
aL343944794L
aL125114076L
aL292509279L
aL79420417L
aL2360439155L
aL214454924L
aL400070534L
aL183598223L
aL360165043L
aL618227512L
aL465852868L
aL97472344L
aL92763713L
aL229773007L
aL1467171296L
aL384505175L
aL50246262L
aL14819896L
aL121509292L
aL449086723L
aL389561369L
aL410356662L
aL180629719L
aL1325014436L
aL608148481L
aL190039025L
aL2356432953L
aL265557557L
aL2280077402L
aL415304716L
aL77249562L
aL61480792L
aL433463844L
aL2262267598L
aL105422399L
aL1189789183L
aL144587622L
aL302675665L
aL1180026866L
aL2316140372L
aL22604114L
aL12026292L
aL248881299L
aL95712575L
aL2369584910L
aL321885054L
aL60878240L
aL368639173L
aL35180340L
aL2377407569L
aL263359147L
aL131768793L
aL2319655515L
aL404287359L
aL35123743L
aL2148829661L
aL127890585L
aL2328621696L
aL92720135L
aL128554749L
aL2377134989L
aL30062603L
aL286149368L
aL307244524L
aL792722520L
aL621138240L
aL151277171L
aL206811548L
aL2288745507L
aL1273697936L
aL321924332L
aL2374320278L
aL1620054254L
aL2149571947L
aL338316393L
aL25118324L
aL1253049715L
aL2290067132L
aL356602555L
aL386184398L
aL132207234L
aL299002332L
aL1943245836L
aL264946684L
aL1446458616L
aL37000043L
aL146076092L
aL1219885321L
aL2150850072L
aL2327543640L
aL342081568L
aL405136901L
aL258378686L
aL116728058L
aL47916733L
aL120829766L
aL275194238L
aL465705101L
aL15455530L
aL1286628206L
aL367375724L
aL923482292L
aL527134490L
aL2367735503L
aL2193102848L
aL161654955L
aL547504898L
aL581778106L
aL255999557L
aL79838806L
aL1459479938L
aL610085938L
aL481403299L
aL40780196L
aL582603619L
aL44028279L
aL491359451L
aL115147722L
aL384884564L
aL2290773026L
aL198988721L
aL1139031595L
aL271372608L
aL219072643L
aL332552379L
aL951710760L
aL138766537L
aL47750146L
aL276410126L
aL341210671L
aL119672812L
aL410556932L
aL216027241L
aL140099146L
aL64307912L
aL1381451606L
aL335885233L
aL83862128L
aL1063478606L
aL1471953014L
aL200813809L
aL2264491498L
aL291362676L
aL1150700557L
aL1065063054L
aL70105196L
aL132525437L
aL895871690L
aL120334012L
aL869829583L
aL1496245382L
aL244739459L
aL114462263L
aL2282822532L
aL80989582L
aL1568798838L
aL162839469L
aL95166331L
aL272115891L
aL177105716L
aL279598207L
aL1682518260L
aL239804770L
aL374829117L
aL234778283L
aL165399911L
aL1378865544L
aL2347282692L
aL1686349416L
aL418732228L
aL305084130L
aL90257123L
aL33212890L
aL378548275L
aL280197326L
aL717976610L
aL484926833L
aL38405781L
aL1048403731L
aL344813782L
aL2325759932L
aL2165713376L
aL562691184L
aL16299183L
aL158726082L
aL186108161L
aL386364851L
aL14195523L
aL1377337471L
aL1437029797L
aL45879170L
aL563579179L
aL179895652L
aL96633460L
aL2362478831L
aL2382257447L
aL2361130463L
aL2361762940L
aL66783655L
aL266139411L
aL175881315L
aL19078633L
aL18885711L
aL357483653L
aL619206034L
aL7848592L
aL16041604L
aL1035855296L
aL2175541839L
aL2199259227L
aL2266299174L
aL1921487707L
aL456177995L
aL544981545L
aL583724459L
aL180312433L
aL393989985L
aL293046700L
aL386951330L
aL28766507L
aL34564762L
aL998952552L
aL103444619L
aL2366046920L
aL11512292L
aL1568116574L
aL401445307L
aL117783144L
aL30859935L
aL58169042L
aL13423502L
aL383881893L
aL2399340645L
aL232179368L
aL819230996L
aL2161750769L
aL182472482L
aL97914346L
aL79172557L
aL428274507L
aL202274882L
aL42058005L
aL552064683L
aL367992218L
aL126447911L
aL412447896L
aL594765612L
aL151462704L
aL58919829L
aL199962450L
aL96406418L
aL824994913L
aL19658453L
aL15281778L
aL896154806L
aL276023379L
aL970766875L
aL529469239L
aL389992702L
aL1478470790L
aL182697242L
aL113598852L
aL260452510L
aL512409743L
aL1671491214L
aL235615214L
aL366676723L
aL2202069139L
aL162786245L
aL20454553L
aL151898916L
aL292597405L
aL11196362L
aL413172256L
aL350462751L
aL172062555L
aL633777749L
aL29269473L
aL2282659673L
aL198782314L
aL166931895L
aL277758805L
aL1270332710L
aL269026000L
aL382135190L
aL45140248L
aL1895046660L
aL413042191L
aL172452643L
aL343376163L
aL83152279L
aL870346165L
aL2363717921L
aL224643119L
aL295066815L
aL1412628403L
aL188864322L
aL198173304L
aL341125004L
aL437494336L
aL496838852L
aL441589596L
aL1359899562L
aL16556823L
aL312933523L
aL429364198L
aL1145647087L
aL371167800L
aL1138213604L
aL532588988L
aL394641871L
aL618273814L
aL2288413858L
aL1053223178L
aL69626249L
aL151395657L
aL235982737L
aL170279903L
aL12675892L
aL139014588L
aL392624678L
aL2273212105L
aL259416210L
aL298249440L
aL166562542L
aL526547360L
aL141605195L
aL30248306L
aL2170947297L
aL814202413L
aL535375798L
aL220967271L
aL590391353L
aL51137698L
aL104768445L
aL487408046L
aL14582687L
aL57624980L
aL344093400L
aL408624228L
aL299483053L
aL126927195L
aL299717571L
aL289233994L
aL425210965L
aL135296296L
aL479778128L
aL50628907L
aL1346676926L
aL2363716630L
aL2307783705L
aL473845212L
aL464006104L
aL1728312600L
aL1196845802L
aL164425909L
aL278532002L
aL359405829L
aL585796201L
aL785287176L
aL827988577L
aL192607431L
aL280999098L
aL304615903L
aL2386798019L
aL1622488568L
aL444299048L
aL372907915L
aL101096955L
aL275901802L
aL319555140L
aL255472708L
aL128271243L
aL286617220L
aL46319449L
aL72913300L
aL202651756L
aL406559185L
aL464692925L
aL18449806L
aL473060070L
aL1082265823L
aL547535409L
aL229549193L
aL1295665310L
aL310312421L
aL426980631L
aL223033288L
aL174287485L
aL345548844L
aL1676529126L
aL230517185L
aL15461907L
aL1234227894L
aL1774441L
aL15533076L
aL216038127L
aL49916244L
aL476204593L
aL864575629L
aL2347076717L
aL260912864L
aL2289448749L
aL301983993L
aL93962722L
aL235285786L
aL66089302L
aL372728283L
aL398799274L
aL37247126L
aL338935176L
aL1593812840L
aL1225581907L
aL201653232L
aL22643944L
aL1183506438L
aL19859036L
aL560188538L
aL817574916L
aL158434447L
aL302687640L
aL403617475L
aL436265710L
aL472834046L
aL326526397L
aL33230351L
aL519223626L
aL77937642L
aL127565383L
aL213854826L
aL2360458065L
aL211741138L
aL193366711L
aL201934239L
aL77715403L
aL300627825L
aL36891193L
aL81880643L
aL320123710L
aL32253078L
aL509673084L
aL241625847L
aL40006630L
aL237497616L
aL264467370L
aL28426711L
aL932849112L
aL279275831L
aL24751321L
aL257537253L
aL1709652475L
aL192678871L
aL2198380110L
aL35275667L
aL29913493L
aL283482685L
aL2274489261L
aL25835447L
aL313260519L
aL2162545839L
aL254593181L
aL72976286L
aL9202182L
aL835304923L
aL431157869L
aL2229288814L
aL385836628L
aL36683990L
aL203966166L
aL721830540L
aL23180063L
aL278105270L
aL69326645L
aL94560761L
aL271907486L
aL49372786L
aL269344631L
aL244613194L
aL10977452L
aL191391119L
aL359928056L
aL361996756L
aL142498345L
aL486032978L
aL2215331L
aL562069631L
aL398857358L
aL26878006L
aL55943115L
aL786969660L
aL104602777L
aL105131469L
aL333979579L
aL1342419031L
aL27028523L
aL413372269L
aL39056208L
aL2371909958L
aL924432444L
aL535639876L
aL91416906L
aL604048744L
aL2232968565L
aL1331003810L
aL209627311L
aL190140307L
aL974006671L
aL418550019L
aL397575410L
aL22701467L
aL13694402L
aL123315477L
aL990807444L
aL724515240L
aL254123581L
aL847931395L
aL2330813135L
aL261616632L
aL78275774L
aL1017851670L
aL2202949405L
aL247794856L
aL898023463L
aL574846976L
aL864328225L
aL190920776L
aL390827504L
aL159074627L
aL440214387L
aL160172722L
aL116395081L
aL100781649L
aL2160724005L
aL303428021L
aL722033442L
aL143541336L
aL951214291L
aL231119545L
aL2392079080L
aL1591697413L
aL92013849L
aL541071029L
aL1117948124L
aL24020697L
aL235048567L
aL507020956L
aL409339367L
aL117232299L
aL360006915L
aL2373309357L
aL322112923L
aL875164446L
aL187153390L
aL1624713121L
aL37922072L
aL302209215L
aL276882909L
aL2164733289L
aL146590113L
aL191715920L
aL312885700L
aL477111116L
aL577477133L
aL1222750340L
aL407281109L
aL228364089L
aL189230168L
aL232993154L
aL82499183L
aL538365378L
aL228203275L
aL130771900L
aL22127498L
aL588415871L
aL242363172L
aL302009707L
aL367662749L
aL100815749L
aL159405516L
aL204111076L
aL102744425L
aL587277825L
aL104320537L
aL14096634L
aL142399321L
aL32364370L
aL2372936482L
aL367034449L
aL176606243L
aL86592469L
aL95244241L
aL1011824894L
aL356470582L
aL24215568L
aL340232381L
aL33876321L
aL507725503L
aL51500061L
aL619463024L
aL213224905L
aL26421985L
aL520681415L
aL14919249L
aL473411565L
aL428271582L
aL111336214L
aL127907835L
aL230855593L
aL252643480L
aL2280494760L
aL1249282628L
aL152990153L
aL128645527L
aL60393721L
aL326818605L
aL100203540L
aL318982526L
aL492217284L
aL15114099L
aL96583499L
aL287456200L
aL180895317L
aL47762634L
aL429914949L
aL634491824L
aL195840626L
aL273593084L
aL1285630338L
aL31394642L
aL9372212L
aL1172424210L
aL387731619L
aL312387751L
aL254628533L
aL121064615L
aL90373015L
aL1460391217L
aL86536360L
aL2303465495L
aL127373741L
aL2173383603L
aL14956183L
aL523102459L
aL222633232L
aL13698072L
aL365547383L
aL265438050L
aL1145434327L
aL1593817092L
aL28514542L
aL327251748L
aL406591208L
aL203301517L
aL16959085L
aL105154275L
aL248290363L
aL386185519L
aL38644403L
aL1186285855L
aL1167226261L
aL355247170L
aL2360843314L
aL618448401L
aL14891019L
aL240392464L
aL808598137L
aL2152559261L
aL598660883L
aL390438045L
aL25873752L
aL1423971511L
aL344348583L
aL2382439846L
aL1109027672L
aL408328613L
aL49973392L
aL1190206062L
aL2250516085L
aL81239268L
aL2356894827L
aL353657641L
aL526930408L
aL181334428L
aL78440892L
aL1252546604L
aL390009024L
aL347902136L
aL201353454L
aL36196124L
aL30611376L
aL249259792L
aL92832122L
aL83683972L
aL772444568L
aL170827722L
aL8642932L
aL309188993L
aL83820750L
aL521620115L
aL293894757L
aL850153040L
aL322141544L
aL86407413L
aL30288460L
aL374543911L
aL193571219L
aL92811360L
aL86281686L
aL481288902L
aL529578106L
aL225038916L
aL48391189L
aL38362482L
aL496766784L
aL828080330L
aL104927788L
aL785395165L
aL204544508L
aL175443084L
aL252145477L
aL292562410L
aL577539415L
aL186504093L
aL4622851L
aL319244526L
aL61018867L
aL7273132L
aL61175271L
aL57268555L
aL260374527L
aL317250884L
aL140555306L
aL18449776L
aL99834533L
aL45269342L
aL872096562L
aL23195391L
aL530056284L
aL155517599L
aL325796594L
aL68192767L
aL433548056L
aL81258224L
aL57347002L
aL23502035L
aL144834740L
aL754932019L
aL49575095L
aL525622724L
aL421370158L
aL98785444L
aL221070893L
aL482637331L
aL54292453L
aL82620771L
aL187902909L
aL934420562L
aL127023487L
aL1172876060L
aL113420121L
aL31944805L
aL141314388L
aL21449431L
aL402225963L
aL254039403L
aL187176266L
aL392288489L
aL13465112L
aL991483543L
aL100585415L
aL251860431L
aL31300920L
aL2253860907L
aL562015982L
aL322428201L
aL919501L
aL805348393L
aL50712955L
aL1229708150L
aL296734401L
aL228502918L
aL2252568318L
aL177378783L
aL38750615L
aL34775781L
aL286898451L
aL1088046841L
aL118356883L
aL336627943L
aL248584930L
aL259870732L
aL19607925L
aL500929214L
aL296132086L
aL181574517L
aL515133541L
aL115204406L
aL15174272L
aL226568250L
aL2264317408L
aL324120791L
aL384353539L
aL256293971L
aL105339239L
aL118756273L
aL15248294L
aL11442892L
aL19421722L
aL236968027L
aL258413232L
aL175259274L
aL24287975L
aL126962279L
aL260422031L
aL153746741L
aL22169735L
aL248232077L
aL237060003L
aL217268290L
aL16808544L
aL1417926236L
aL1570671996L
aL194169510L
aL290494420L
aL1612129555L
aL37400701L
aL292703928L
aL1722300236L
aL155507305L
aL1284274189L
aL124845078L
aL140961282L
aL192273856L
aL143141997L
aL122238861L
aL241363838L
aL334476769L
aL21339669L
aL30492203L
aL20037767L
aL342141540L
aL145768579L
aL316874655L
aL40720549L
aL163472366L
aL275082328L
aL188436304L
aL193479889L
aL276843490L
aL230517898L
aL1887665738L
aL2272242059L
aL1013170831L
aL134462790L
aL257164045L
aL2329560131L
aL126567491L
aL164320486L
aL40124215L
aL256948133L
aL398301391L
aL232211117L
aL392709645L
aL133223770L
aL452316395L
aL155262547L
aL867849974L
aL1310311993L
aL17508098L
aL40347248L
aL835383452L
aL181736825L
aL241694157L
aL496512230L
aL93429560L
aL33307733L
aL14167333L
aL1169427985L
aL385657387L
aL157274048L
aL77508384L
aL25587975L
aL166211899L
aL382711084L
aL240060385L
aL230890059L
aL223550636L
aL26513283L
aL228712944L
aL402988063L
aL365469994L
aL82923925L
aL63683471L
aL30644205L
aL60449713L
aL242023870L
aL51767046L
aL248255590L
aL45411813L
aL110244965L
aL292988096L
aL966097717L
aL1954946353L
aL285326457L
aL419103442L
aL140736426L
aL39436556L
aL1953425754L
aL291886019L
aL31545430L
aL1060649834L
aL513320064L
aL1060695319L
aL103099470L
aL362670159L
aL130279039L
aL38885427L
aL56344124L
aL375565180L
aL127984039L
aL1620585750L
aL286095579L
aL185815038L
aL396425525L
aL217132440L
aL86278907L
aL105087410L
aL123615873L
aL398701973L
aL1277525125L
aL22662026L
aL290672122L
aL16463904L
aL112506559L
aL100390645L
aL143812250L
aL281576007L
aL464969312L
aL558044450L
aL439174197L
aL17687491L
aL401071642L
aL266766300L
aL91289823L
aL1377596413L
aL368564153L
aL42390710L
aL56216964L
aL426614097L
aL907084045L
aL324548269L
aL429398324L
aL995038604L
aL273246745L
aL1225891994L
aL12061042L
aL79841885L
aL358801776L
aL323928908L
aL301702195L
aL422601473L
aL509086167L
aL210013361L
aL1596037154L
aL158064234L
aL84552181L
aL14343159L
aL341557302L
aL88170047L
aL207104199L
aL16948380L
aL534369695L
aL468482399L
aL293643533L
aL238349229L
aL355955813L
aL393909537L
aL2334579789L
aL569023900L
aL312267258L
aL402309396L
aL306272532L
aL91989639L
aL629252994L
aL835372970L
aL258288650L
aL195371843L
aL236857407L
aL69913961L
aL109079225L
aL27964366L
aL1074099775L
aL68159497L
aL283253642L
aL2312543645L
aL153884463L
aL535921715L
aL2191731075L
aL1195868839L
aL501642723L
aL20381464L
aL18723602L
aL1594516753L
aL416948414L
aL117948685L
aL37332002L
aL216859247L
aL226122303L
aL341895167L
aL15111887L
aL211458967L
aL81656841L
aL584833494L
aL186106920L
aL314038899L
aL305651785L
aL1702785356L
aL130463113L
aL1457796992L
aL741368130L
aL16497593L
aL1874963462L
aL740606616L
aL98192945L
aL141254401L
aL342104791L
aL81387198L
aL2283747709L
aL9055772L
aL132000118L
aL184186025L
aL2314955545L
aL18896512L
aL16694823L
aL2242090684L
aL508951327L
aL254973873L
aL100466091L
aL664473L
aL20597780L
aL2291275114L
aL332619778L
aL131282295L
aL828954804L
aL53736007L
aL16411610L
aL362911225L
aL922924226L
aL771660L
aL936901008L
aL48491886L
aL451444998L
aL892985750L
aL20695910L
aL133715519L
aL249695026L
aL42503315L
aL52784935L
aL1666865516L
aL987113748L
aL1467557132L
aL2262391464L
aL109828958L
aL24208809L
aL194811748L
aL257748869L
aL70179939L
aL27201336L
aL1270133341L
aL2298004639L
aL92614849L
aL754866865L
aL1220358794L
aL350865463L
aL636433553L
aL14587818L
aL228097757L
aL2191020732L
aL389028240L
aL331694424L
aL378470403L
aL17710131L
aL304875837L
aL1098156668L
aL1890613094L
aL32434307L
aL971766763L
aL160199098L
aL295928122L
aL497373917L
aL398213696L
aL484827579L
aL25184346L
aL112705296L
aL252180954L
aL294814725L
aL2243075950L
aL294670731L
aL442086788L
aL2337082014L
aL405554598L
aL210573372L
aL179196640L
aL512090678L
aL139596855L
aL15967264L
aL406417338L
aL1106804588L
aL322266658L
aL150381292L
aL65649221L
aL289517938L
aL237854345L
aL467619158L
aL294363847L
aL17893991L
aL416625380L
aL26996604L
aL408063450L
aL281583814L
aL245501454L
aL876122978L
aL555905494L
aL84057015L
aL106758486L
aL135253532L
aL457377773L
aL1645594128L
aL1477327428L
aL629271333L
aL1028166294L
aL58186913L
aL181526249L
aL254181252L
aL45438816L
aL383834619L
aL413758429L
aL1022872376L
aL158084871L
aL56367233L
aL105163995L
aL1163442559L
aL23241493L
aL35187259L
aL204454853L
aL548568889L
aL477806879L
aL174573036L
aL1604371652L
aL212116652L
aL557036951L
aL140780437L
aL240432179L
aL367363647L
aL204344220L
aL39470828L
aL184388172L
aL954166489L
aL632214442L
aL1291022089L
aL115945258L
aL804162847L
aL767376744L
aL340338485L
aL6138052L
aL2331700965L
aL82043527L
aL390406337L
aL103028004L
aL246159316L
aL112820172L
aL237116281L
aL353357667L
aL1070773020L
aL941803440L
aL155239972L
aL35437018L
aL129512737L
aL973916006L
aL1049231161L
aL526126151L
aL97643703L
aL610253435L
aL49797407L
aL22627841L
aL358671300L
aL36496125L
aL96517053L
aL49790277L
aL419939714L
aL14068446L
aL2353110437L
aL381394904L
aL67280717L
aL274237651L
aL161504934L
aL2317742591L
aL88152011L
aL1130430126L
aL54550609L
aL337320512L
aL202257620L
aL965084234L
aL291149683L
aL1013852546L
aL199739816L
aL24608545L
aL343308493L
aL301622789L
aL130551252L
aL1156998757L
aL1015326278L
aL226425305L
aL35222371L
aL386687115L
aL1860527822L
aL279066948L
aL127184962L
aL604170729L
aL1073222857L
aL196773703L
aL236794025L
aL150700566L
aL1916764255L
aL189064380L
aL15281579L
aL26108435L
aL562352059L
aL20239047L
aL82308451L
aL310453419L
aL2166796545L
aL81698956L
aL105549427L
aL390346286L
aL224188964L
aL2359461815L
aL1715084606L
aL459212846L
aL196745227L
aL413052877L
aL378062753L
aL22026934L
aL417198492L
aL559586189L
aL18395161L
aL1408543448L
aL1185956474L
aL112761668L
aL16113204L
aL201009964L
aL249711518L
aL1709761188L
aL120849148L
aL134048116L
aL198582340L
aL142814372L
aL76423275L
aL886555873L
aL119503054L
aL32468042L
aL1280210988L
aL1868137916L
aL96649462L
aL42676206L
aL198954595L
aL133565977L
aL118751460L
aL24058990L
aL294578881L
aL207137190L
aL113090262L
aL49463335L
aL262405025L
aL847497841L
aL306980807L
aL376496003L
aL903945060L
aL377297157L
aL473153899L
aL39078003L
aL368215654L
aL213453565L
aL54167548L
aL425790316L
aL236621542L
aL728285426L
aL114713611L
aL253032506L
aL468657100L
aL1538634944L
aL92654089L
aL496173252L
aL245970374L
aL157982778L
aL636753755L
aL2192590916L
aL1498841390L
aL1063076700L
aL594513480L
aL1606776282L
aL457825033L
aL264346692L
aL392298238L
aL177619626L
aL636274185L
aL26038068L
aL366550325L
aL226696274L
aL492491691L
aL541141215L
aL230294440L
aL99934054L
aL359323656L
aL17893288L
aL80175761L
aL1249614144L
aL2356162003L
aL97756116L
aL22006151L
aL161772433L
aL90017743L
aL17166530L
aL385772344L
aL337803053L
aL14224731L
aL456027163L
aL388410028L
aL10526372L
aL606616172L
aL392347271L
aL437663438L
aL304961743L
aL548446166L
aL1015596900L
aL286440025L
aL551316155L
aL1900575896L
aL293197208L
aL131921676L
aL142307851L
aL517468779L
aL439432255L
aL131462681L
aL332962519L
aL500969014L
aL405711971L
aL35768178L
aL304948830L
aL1825891L
aL18615517L
aL126398231L
aL321314526L
aL183634241L
aL74791673L
aL389046912L
aL34270032L
aL357384478L
aL18419282L
aL351200827L
aL306805727L
aL2283535616L
aL45410367L
aL367115473L
aL1975132554L
aL2382667534L
aL237471206L
aL1587185984L
aL30817675L
aL195811666L
aL17604051L
aL297998964L
aL615947374L
aL291605164L
aL2329600747L
aL31725493L
aL428141627L
aL65667537L
aL99202421L
aL385287417L
aL1029633199L
aL215292728L
aL96312612L
aL127944637L
aL82602887L
aL27631495L
aL18027633L
aL195513728L
aL1867212703L
aL475651569L
aL239194949L
aL577323296L
aL236916179L
aL304374226L
aL297503959L
aL38175775L
aL38865958L
aL54844964L
aL125470201L
aL217580575L
aL243306048L
aL202170772L
aL447305871L
aL324689431L
aL26230957L
aL325633765L
aL17242197L
aL33709706L
aL2206184028L
aL475071011L
aL408028744L
aL154248951L
aL2188947683L
aL532705783L
aL332854632L
aL79538864L
aL759698912L
aL2172547998L
aL164077585L
aL109684586L
aL6477792L
aL14919542L
aL327510923L
aL388904932L
aL1007404250L
aL38907844L
aL479067901L
aL166258444L
aL756938605L
aL1444398187L
aL225988091L
aL34265797L
aL1527920226L
aL50359308L
aL431590290L
aL1564314061L
aL69352492L
aL1260626634L
aL964181444L
aL379658454L
aL384215150L
aL108887499L
aL917701842L
aL412169940L
aL154991471L
aL437490535L
aL973796977L
aL201683160L
aL385361791L
aL287683415L
aL491164062L
aL320958697L
aL204017521L
aL1433554836L
aL16906984L
aL398785458L
aL462252156L
aL2320009944L
aL380076932L
aL79131223L
aL400207004L
aL95233639L
aL104936850L
aL861926216L
aL592734378L
aL828940362L
aL935460013L
aL542337518L
aL547577230L
aL229347479L
aL2204416943L
aL634101958L
aL45562154L
aL26137923L
aL378722902L
aL12119742L
aL964774424L
aL358385252L
aL66451145L
aL61522426L
aL380843799L
aL1693496028L
aL31283149L
aL190223701L
aL563424922L
aL2351060544L
aL6733672L
aL398249567L
aL111691580L
aL58014419L
aL2188027251L
aL424049400L
aL24148169L
aL271326790L
aL36635098L
aL103551847L
aL118980742L
aL1171552068L
aL338671702L
aL250850509L
aL21613784L
aL382395616L
aL379448470L
aL301023653L
aL1511101184L
aL245940810L
aL33961633L
aL238321285L
aL2325763434L
aL88097026L
aL2202877559L
aL443842407L
aL1120077589L
aL231783662L
aL1675435992L
aL535315793L
aL1889697342L
aL176478950L
aL859965715L
aL113104429L
aL12125062L
aL60023935L
aL2350021302L
aL86394686L
aL151920625L
aL204316443L
aL2205554864L
aL146039975L
aL1076247956L
aL1265428896L
aL320064214L
aL197707083L
aL246505709L
aL680953L
aL552609570L
aL288267615L
aL259688069L
aL19490539L
aL34571662L
aL21239874L
aL369578212L
aL2334534472L
aL215741671L
aL62105499L
aL367118198L
aL549095700L
aL115975414L
aL132316880L
aL612798018L
aL123185998L
aL348197493L
aL125404104L
aL288700419L
aL94120768L
aL927341234L
aL83566759L
aL25443822L
aL36655665L
aL398684690L
aL321365664L
aL129055514L
aL30991672L
aL1148764633L
aL404479875L
aL1416387666L
aL240118613L
aL58463851L
aL272639331L
aL195061276L
aL439177564L
aL103498728L
aL524629454L
aL12315182L
aL17051243L
aL407878146L
aL453530716L
aL280484355L
aL52817673L
aL1197038522L
aL385521190L
aL1282721642L
aL2156908837L
aL487025529L
aL117218563L
aL397120461L
aL604526836L
aL381463665L
aL1897152038L
aL99475687L
aL1713138870L
aL299564014L
aL2284061125L
aL332401481L
aL244268803L
aL1580714934L
aL396647653L
aL302996726L
aL1975150249L
aL572666900L
aL24781884L
aL1558708626L
aL23012505L
aL91327063L
aL15082288L
aL485938582L
aL1454640870L
aL145965692L
aL267781431L
aL17950999L
aL1008258182L
aL84650559L
aL48964403L
aL66451293L
aL1232129785L
aL1066056722L
aL160571944L
aL246603845L
aL338135611L
aL19146691L
aL27117061L
aL2294358682L
aL319775769L
aL322514808L
aL21394128L
aL743314808L
aL291081160L
aL1216233870L
aL282412240L
aL2331096261L
aL529412597L
aL1000374344L
aL70413592L
aL397942861L
aL14056108L
aL255715172L
aL351560642L
aL435331579L
aL506006511L
aL2270962745L
aL197254887L
aL300391259L
aL97183900L
aL315278693L
aL52023834L
aL306692555L
aL413394731L
aL386564382L
aL563744456L
aL872530748L
aL109573130L
aL407270290L
aL97416413L
aL1483043576L
aL2225796304L
aL331492538L
aL122751862L
aL1357645884L
aL68966364L
aL63456693L
aL54528752L
aL2314426125L
aL26063664L
aL222142857L
aL956316535L
aL952344068L
aL420243247L
aL42393500L
aL449140240L
aL612499241L
aL393256475L
aL546134642L
aL298449012L
aL305626450L
aL336162384L
aL27013718L
aL227606641L
aL1458870494L
aL315652396L
aL10140072L
aL527564120L
aL2160538241L
aL1550218334L
aL8309742L
aL2219850409L
aL230230360L
aL186239534L
aL316589570L
aL337339751L
aL484226309L
aL396735199L
aL791337229L
aL574704633L
aL52455654L
aL429025662L
aL100072242L
aL376890402L
aL334618222L
aL733721102L
aL68805002L
aL339748500L
aL20777812L
aL266222825L
aL578402330L
aL805795663L
aL240605143L
aL918651830L
aL424264367L
aL763204620L
aL50595914L
aL81690382L
aL175400497L
aL426187185L
aL395317482L
aL824859824L
aL267786942L
aL562004519L
aL77007291L
aL351569492L
aL1373453160L
aL48520379L
aL810571969L
aL443221639L
aL497196369L
aL154492035L
aL615817796L
aL380869416L
aL16222806L
aL2251501429L
aL2295378036L
aL420389630L
aL382109742L
aL96507248L
aL617181543L
aL342971779L
aL1678451371L
aL77063455L
aL434853602L
aL261201824L
aL107705363L
aL350102517L
aL952474082L
aL375094291L
aL376537802L
aL200085665L
aL251581398L
aL1730225034L
aL1049032320L
aL14258867L
aL879752983L
aL973925455L
aL112485367L
aL615542172L
aL16655648L
aL250219300L
aL403607148L
aL222759682L
aL451367645L
aL552353592L
aL252056159L
aL9351652L
aL859705915L
aL583812036L
aL42031093L
aL1309266751L
aL139379097L
aL114613339L
aL2277363896L
aL488609169L
aL183367205L
aL2210616738L
aL1607905356L
aL1609396765L
aL1511689981L
aL1869467240L
aL322922512L
aL2214043973L
aL294698475L
aL1958887080L
aL96637364L
aL342150352L
aL633187523L
aL9075852L
aL2365837587L
aL1161815803L
aL254605321L
aL51795989L
aL2223217654L
aL261920350L
aL168020451L
aL1060230338L
aL43508313L
aL435273630L
aL29185572L
aL232981344L
aL1513014650L
aL273766563L
aL380040522L
aL1333643221L
aL466912718L
aL391032913L
aL115458863L
aL35717130L
aL500041070L
aL308681661L
aL615308213L
aL330203816L
aL121224917L
aL2313412903L
aL893313906L
aL364991831L
aL945604388L
aL1110200000L
aL174585514L
aL1557895656L
aL2353046635L
aL359331426L
aL260834193L
aL1333569865L
aL1891604736L
aL24109945L
aL383093772L
aL219940681L
aL268010583L
aL2365318827L
aL142808520L
aL359545215L
aL53946026L
aL388548612L
aL1272916058L
aL185475320L
aL178343286L
aL285025937L
aL152747268L
aL168900699L
aL919526072L
aL341306330L
aL623221315L
aL392974774L
aL90238893L
aL188296243L
aL580929956L
aL867022418L
aL14072878L
aL82644750L
aL1387587985L
aL529377128L
aL624882943L
aL250023133L
aL260451744L
aL73280914L
aL1438899067L
aL2260299175L
aL28604598L
aL223958020L
aL232137363L
aL11120362L
aL116123970L
aL2227145976L
aL137850919L
aL48520017L
aL21488858L
aL9334812L
aL31714982L
aL6816912L
aL142754751L
aL1357623806L
aL363926908L
aL134801121L
aL29468782L
aL1606659974L
aL374690180L
aL385321988L
aL931502054L
aL191386103L
aL88263831L
aL2371701029L
aL276664226L
aL1183017871L
aL139631192L
aL88048518L
aL222943646L
aL436009451L
aL275020089L
aL192427444L
aL101573147L
aL156222616L
aL19898884L
aL342006069L
aL35446677L
aL10491362L
aL1680845935L
aL139830575L
aL308411414L
aL233248732L
aL188355766L
aL155243346L
aL91770627L
aL1289347369L
aL269501057L
aL45395145L
aL205232453L
aL108594774L
aL29059869L
aL405814536L
aL600099289L
aL151934511L
aL307313145L
aL253986855L
aL140772582L
aL28183885L
aL185555546L
aL794702834L
aL363616701L
aL742325353L
aL934798284L
aL253714639L
aL1546699549L
aL410528649L
aL85608607L
aL1886319823L
aL2354232532L
aL371309098L
aL471994660L
aL184738785L
aL102407590L
aL131848713L
aL237259507L
aL524211575L
aL352437698L
aL101914349L
aL356011255L
aL542327855L
aL2356416141L
aL285886285L
aL1478867059L
aL328724010L
aL122402038L
aL323485926L
aL348971805L
aL49595078L
aL515820737L
aL582679289L
aL266617884L
aL2391582028L
aL14301599L
aL1008755298L
aL1110452533L
aL128725884L
aL232180806L
aL429857120L
aL261871749L
aL2180202044L
aL132224594L
aL141487925L
aL14120461L
aL1318814840L
aL21031380L
aL1043225796L
aL10452222L
aL1128365564L
aL859951093L
aL599644200L
aL567329110L
aL88707848L
aL97028142L
aL568812014L
aL396098042L
aL1148360077L
aL1688980842L
aL1415530196L
aL290501117L
aL454833014L
aL69065219L
aL1546447734L
aL15089613L
aL322138446L
aL106505501L
aL277608369L
aL91457034L
aL176165542L
aL23324420L
aL15078571L
aL21416310L
aL171167757L
aL78005862L
aL269482011L
aL389076701L
aL105505159L
aL36061210L
aL1287081756L
aL425134052L
aL276586997L
aL2199282075L
aL343900641L
aL388164218L
aL254685013L
aL254595008L
aL2160868109L
aL264350145L
aL278594250L
aL238783878L
aL392169210L
aL459501360L
aL277566617L
aL2244109039L
aL104538191L
aL222912758L
aL1219672628L
aL236355704L
aL1292885629L
aL1328697128L
aL140909189L
aL1536096506L
aL304458311L
aL635121473L
aL6688322L
aL133743270L
aL1015762495L
aL87185750L
aL712604628L
aL38640732L
aL5464132L
aL257884280L
aL556895300L
aL767659212L
aL1873039320L
aL329766205L
aL463252841L
aL329959332L
aL489159777L
aL1032738494L
aL115640625L
aL359646514L
aL1653177900L
aL345900694L
aL406184450L
aL30037426L
aL448111214L
aL712247588L
aL223659771L
aL20541054L
aL105962122L
aL239352145L
aL1506021380L
aL2359244062L
aL274915400L
aL1012009982L
aL308693476L
aL21925919L
aL447845114L
aL6385892L
aL415536538L
aL1611096001L
aL344351735L
aL921822962L
aL439298434L
aL792498103L
aL240722257L
aL22044386L
aL40672269L
aL1011577280L
aL262814770L
aL149816991L
aL14068979L
aL2233227541L
aL356151495L
aL110505625L
aL419092689L
aL256401254L
aL14610773L
aL394090736L
aL142469171L
aL143906296L
aL77619421L
aL58026451L
aL569369605L
aL137459155L
aL212346771L
aL1645832461L
aL333589623L
aL389189100L
aL1895132390L
aL156686183L
aL256090015L
aL2383654529L
aL263510841L
aL114175388L
aL378766706L
aL149945772L
aL464168408L
aL317683988L
aL48706397L
aL143779026L
aL1137367321L
aL1338926047L
aL94073265L
aL13065292L
aL305103099L
aL179636617L
aL121537359L
aL588062579L
aL1128995522L
aL162392186L
aL1076919528L
aL95741787L
aL366385031L
aL322267056L
aL10979262L
aL45730692L
aL99865883L
aL434356129L
aL1834211214L
aL287636265L
aL422224808L
aL551176029L
aL2171149008L
aL250255731L
aL184741616L
aL844311504L
aL1587577730L
aL134726292L
aL439366456L
aL228380134L
aL473371916L
aL2357147525L
aL15719504L
aL600711902L
aL108887225L
aL2355000741L
aL847563368L
aL506172495L
aL520911517L
aL398996708L
aL116363075L
aL317820424L
aL957581959L
aL48340544L
aL993213174L
aL193091555L
aL186852862L
aL17315587L
aL17370591L
aL409509455L
aL32616516L
aL97593656L
aL12179872L
aL295181430L
aL425008777L
aL25070280L
aL821023094L
aL84213078L
aL233798023L
aL15621943L
aL87300553L
aL135902097L
aL15535691L
aL416404551L
aL54939844L
aL191714329L
aL65356864L
aL30657620L
aL8410632L
aL707036366L
aL443965846L
aL35856589L
aL362060980L
aL165431681L
aL25767536L
aL360347629L
aL1496395074L
aL19787912L
aL73637070L
aL204351570L
aL324615626L
aL550572000L
aL333536037L
aL53547901L
aL12027902L
aL1966505155L
aL561184772L
aL2149199534L
aL33840320L
aL150473119L
aL249216290L
aL304874743L
aL369487664L
aL403667373L
aL129445453L
aL1957576207L
aL273498900L
aL81448614L
aL92071380L
aL14637273L
aL381848573L
aL8262432L
aL920979674L
aL2355198048L
aL1018429688L
aL21556545L
aL76480043L
aL60636700L
aL399461203L
aL60372559L
aL104248283L
aL218006646L
aL83099244L
aL302442872L
aL702595316L
aL105815978L
aL463956375L
aL47059138L
aL331375081L
aL90586528L
aL261011710L
aL233347802L
aL38864218L
aL17873549L
aL129938747L
aL277493361L
aL1060351056L
aL485900698L
aL94585473L
aL479581177L
aL78356768L
aL184925230L
aL38628410L
aL162888993L
aL421474609L
aL498759872L
aL315103363L
aL447166371L
aL513111447L
aL33501377L
aL181158959L
aL348445468L
aL1228278319L
aL1230738356L
aL21794003L
aL407015468L
aL121162271L
aL30547403L
aL20011307L
aL287981903L
aL84624744L
aL214290766L
aL463487410L
aL19088871L
aL2255002827L
aL1918447346L
aL380408475L
aL994668241L
aL422883715L
aL2225269453L
aL182789647L
aL769222945L
aL310113256L
aL475729154L
aL16379294L
aL26511448L
aL49616368L
aL1601884190L
aL52071233L
aL392495497L
aL899921930L
aL2343965545L
aL1294745869L
aL159993615L
aL390613935L
aL144176515L
aL144500924L
aL1419820387L
aL472360448L
aL88781185L
aL46717902L
aL626878215L
aL840474866L
aL154082631L
aL315139461L
aL853202834L
aL1480106364L
aL255473172L
aL414139527L
aL302663422L
aL41135304L
aL955203498L
aL1550965124L
aL13056322L
aL70410969L
aL449212928L
aL223960835L
aL490356253L
aL376184640L
aL2351189536L
aL55517064L
aL98196352L
aL1365345842L
aL315403613L
aL58094319L
aL136419324L
aL408693434L
aL369748938L
aL2279243403L
aL590369130L
aL564026894L
aL635449770L
aL16626630L
aL33684457L
aL255184064L
aL116085727L
aL329613428L
aL180859752L
aL143490101L
aL2291790863L
aL18632224L
aL134911305L
aL375580355L
aL1171546866L
aL74205954L
aL591956661L
aL253045974L
aL292959733L
aL128400936L
aL2351059117L
aL133366702L
aL1609352257L
aL409429147L
aL240648408L
aL498040271L
aL340228553L
aL302839439L
aL72306667L
aL122767737L
aL1898967366L
aL700549819L
aL443842479L
aL190307388L
aL157748522L
aL528784145L
aL142147280L
aL145472987L
aL632028702L
aL216036779L
aL457665788L
aL464204355L
aL28785681L
aL280176886L
aL117364453L
aL601968473L
aL2259988754L
aL128885613L
aL151827051L
aL131178507L
aL1318347506L
aL51163129L
aL47702037L
aL545239512L
aL71193744L
aL307700669L
aL260961833L
aL381761671L
aL164608618L
aL447310248L
aL623198996L
aL408938718L
aL89506663L
aL142011109L
aL987182634L
aL1438152272L
aL841027590L
aL82579423L
aL438713591L
aL184101213L
aL1882990765L
aL299061465L
aL2200331127L
aL413332388L
aL224768259L
aL361141842L
aL2337098060L
aL238062022L
aL604607938L
aL487490017L
aL19608838L
aL136267869L
aL456464072L
aL1594968090L
aL23166886L
aL212663598L
aL271752385L
aL223604396L
aL2330700097L
aL349021996L
aL221032505L
aL382617549L
aL476539793L
aL228741701L
aL1045764776L
aL355786488L
aL149919048L
aL249880365L
aL501757998L
aL483151359L
aL45820472L
aL995333396L
aL14252765L
aL137003770L
aL82593795L
aL535525291L
aL2389316392L
aL395443659L
aL299837277L
aL463538310L
aL790680L
aL77530521L
aL215916384L
aL113708450L
aL308545810L
aL553437929L
aL1354971030L
aL46956823L
aL805348147L
aL279192655L
aL147305804L
aL150781444L
aL1525719553L
aL1869137738L
aL2210731056L
aL2214116346L
aL1869380292L
aL2214077665L
aL2210608370L
aL1525776175L
aL858288332L
aL198331982L
aL239404413L
aL242701810L
aL312637644L
aL95954228L
aL1039583178L
aL1729849032L
aL115631760L
aL2270285857L
aL402203454L
aL384806082L
aL29709169L
aL237839609L
aL315986918L
aL253148694L
aL182772474L
aL288267443L
aL581440499L
aL325497518L
aL1553551644L
aL171881821L
aL15788220L
aL1613255833L
aL172443856L
aL214245315L
aL1185920592L
aL14409745L
aL1128815706L
aL594097807L
aL796155974L
aL464623870L
aL185139724L
aL167340496L
aL422613834L
aL465530367L
aL56883187L
aL16537991L
aL787118676L
aL165004883L
aL315256779L
aL1876967216L
aL485957835L
aL368390776L
aL38122364L
aL387554164L
aL52611256L
aL271922442L
aL2322347041L
aL17444059L
aL313664183L
aL452441447L
aL51636168L
aL897132368L
aL210913452L
aL476052048L
aL583228756L
aL258962643L
aL265310236L
aL964382426L
aL1585672244L
aL1012393148L
aL306967979L
aL249883748L
aL19821649L
aL413440205L
aL966882192L
aL48441032L
aL550945372L
aL437654558L
aL473065332L
aL64033776L
aL394240269L
aL221478719L
aL48525046L
aL337153521L
aL1046030976L
aL424206690L
aL41566069L
aL368914978L
aL181683028L
aL389038495L
aL1961105611L
aL2213242972L
aL169686861L
aL1131511106L
aL135980142L
aL1036822370L
aL15181582L
aL1903623770L
aL72569998L
aL291098113L
aL1504024428L
aL1361634884L
aL95218283L
aL137649572L
aL271332131L
aL43407358L
aL860219274L
aL39250357L
aL29183475L
aL1239816666L
aL549335752L
aL1637874216L
aL23979935L
aL826943156L
aL548648348L
aL456175360L
aL11880342L
aL274530598L
aL50979495L
aL218563164L
aL39614693L
aL1584860520L
aL150760848L
aL379237946L
aL155858485L
aL380918400L
aL1304496547L
aL450508329L
aL395983681L
aL254324559L
aL192047887L
aL145358578L
aL629626485L
aL15190835L
aL406215812L
aL383660765L
aL40141600L
aL72483505L
aL401512312L
aL937564602L
aL283655818L
aL754847756L
aL296143160L
aL1017667801L
aL240270364L
aL326661305L
aL1157299040L
aL2153336835L
aL2268979738L
aL158790980L
aL2340978936L
aL349060970L
aL372093252L
aL872519142L
aL1628733912L
aL286359272L
aL1941760800L
aL266218676L
aL210907790L
aL470230451L
aL374562038L
aL1114932672L
aL1353510151L
aL235679793L
aL394232243L
aL1856395584L
aL1292070266L
aL404219099L
aL1701314437L
aL39374657L
aL1454231394L
aL293062794L
aL351532580L
aL397495677L
aL22652309L
aL1931526548L
aL169158935L
aL154301535L
aL171482395L
aL386666065L
aL174410417L
aL1573620596L
aL83273761L
aL1292385044L
aL17211737L
aL635275397L
aL20015251L
aL1277403384L
aL150664228L
aL196372656L
aL2292224085L
aL67179481L
aL703764516L
aL1447471957L
aL58619489L
aL182957714L
aL1736056075L
aL247694065L
aL382315536L
aL479805144L
aL146505285L
aL120447384L
aL259237734L
aL2209719961L
aL404043704L
aL14271888L
aL195677493L
aL297784960L
aL505966585L
aL256156063L
aL726795528L
aL48907578L
aL2229939407L
aL890560398L
aL331632008L
aL424529280L
aL2363451028L
aL402658112L
aL182478598L
aL278897345L
aL312297363L
aL47141098L
aL17673655L
aL122477090L
aL1252904191L
aL44900088L
aL2182506463L
aL82719525L
aL2331773197L
aL245160261L
aL42936327L
aL476822767L
aL1710262663L
aL487000445L
aL85722721L
aL414103272L
aL1860403442L
aL39864868L
aL424724464L
aL27836443L
aL56672708L
aL459938410L
aL433574916L
aL321811980L
aL22865842L
aL79965456L
aL80086396L
aL297350154L
aL1572694386L
aL529014841L
aL120918242L
aL562236339L
aL240169077L
aL786421087L
aL15873946L
aL1324353379L
aL1105888579L
aL123131208L
aL158029985L
aL2185582089L
aL476653377L
aL225409791L
aL771107354L
aL453327653L
aL61569024L
aL184834591L
aL938878224L
aL84598727L
aL413827597L
aL372413560L
aL253095645L
aL908589500L
aL126527762L
aL169963898L
aL403293960L
aL317735555L
aL748565184L
aL382121966L
aL1530932226L
aL185658756L
aL366025992L
aL1311324601L
aL246017092L
aL96737454L
aL76925342L
aL89782264L
aL28433379L
aL129532112L
aL483407306L
aL275720408L
aL378574797L
aL1202633029L
aL381726041L
aL479884051L
aL187166749L
aL214000091L
aL857715163L
aL267952247L
aL269892738L
aL1413134778L
aL567571749L
aL547664178L
aL400085487L
aL151830557L
aL1116387066L
aL14169100L
aL429422903L
aL1556214984L
aL2349098767L
aL160805423L
aL19835987L
aL514322572L
aL18950408L
aL361751767L
aL164476558L
aL352710556L
aL359083531L
aL136623634L
aL459991313L
aL2178708988L
aL1225061064L
aL916767192L
aL188494898L
aL472364653L
aL75739790L
aL1081354700L
aL507761046L
aL277431887L
aL501008198L
aL131514704L
aL272865731L
aL425287174L
aL2250143911L
aL1160306010L
aL428891753L
aL393893710L
aL43185723L
aL206619755L
aL210434629L
aL1278208550L
aL467456829L
aL579259766L
aL312057945L
aL424235813L
aL137371183L
aL20825792L
aL20104882L
aL376005033L
aL461892403L
aL795790956L
aL83559073L
aL194295957L
aL928712431L
aL1149273835L
aL60612778L
aL1946104356L
aL25323314L
aL340911521L
aL292930381L
aL1527203724L
aL327668041L
aL293732026L
aL300926307L
aL461476113L
aL254115075L
aL966734737L
aL110706186L
aL87743237L
aL161064310L
aL91771596L
aL209374028L
aL856464913L
aL221875047L
aL187874842L
aL126034212L
aL26801513L
aL392957073L
aL1231519027L
aL22068935L
aL2183769826L
aL261720204L
aL116096249L
aL18347295L
aL384999946L
aL1032671779L
aL301024457L
aL22068833L
aL359982782L
aL129833137L
aL242412699L
aL84890964L
aL130181269L
aL189104860L
aL184007492L
aL200825320L
aL183678437L
aL23521289L
aL320606905L
aL80844711L
aL1143755983L
aL96329296L
aL1415136350L
aL15821893L
aL345476791L
aL407937641L
aL187874166L
aL1225479384L
aL2174801129L
aL54877896L
aL148723959L
aL502132217L
aL104013967L
aL241112136L
aL317294901L
aL374145635L
aL2231631886L
aL882053388L
aL951497016L
aL456747028L
aL2361028097L
aL718319034L
aL121265802L
aL127801360L
aL156891379L
aL253114759L
aL914955960L
aL1451655829L
aL355729342L
aL773712588L
aL52498049L
aL128210126L
aL64259656L
aL553700324L
aL354874957L
aL2222098626L
aL18662355L
aL374567420L
aL634096032L
aL348027773L
aL17652976L
aL1145660618L
aL149444329L
aL2177406618L
aL368219944L
aL27078217L
aL442787991L
aL523297311L
aL187182254L
aL368379285L
aL298430785L
aL211222289L
aL548648216L
aL548965948L
aL497868004L
aL180344798L
aL331859732L
aL290658254L
aL1417704492L
aL335301666L
aL957699457L
aL26354101L
aL21513586L
aL252024353L
aL423954955L
aL552188962L
aL2267214880L
aL915104575L
aL2277303701L
aL77125998L
aL121168815L
aL369471929L
aL2352972630L
aL117021538L
aL1251922819L
aL486855786L
aL633658873L
aL433671620L
aL74827903L
aL31912308L
aL151125683L
aL19283599L
aL935335652L
aL16465011L
aL409062292L
aL402184972L
aL145730115L
aL2299396186L
aL385463069L
aL288375917L
aL995434951L
aL57932967L
aL1390051340L
aL335784770L
aL52748222L
aL390166170L
aL146177641L
aL271367261L
aL483350338L
aL410868363L
aL507733979L
aL330240262L
aL94944104L
aL57017653L
aL256613678L
aL510544930L
aL257145320L
aL85272528L
aL24693705L
aL283114384L
aL233638328L
aL172386030L
aL976642777L
aL1083204576L
aL303389293L
aL310869977L
aL634896634L
aL405928872L
aL1242443083L
aL430271927L
aL2276891349L
aL39797607L
aL24416483L
aL436038024L
aL274515005L
aL485902520L
aL407108007L
aL21989675L
aL234480021L
aL244998936L
aL720933654L
aL1709889252L
aL989726887L
aL131941044L
aL397458128L
aL108411751L
aL990565694L
aL38637165L
aL397517573L
aL194308693L
aL488853426L
aL457387356L
aL270619237L
aL609662517L
aL276978007L
aL2316368934L
aL269945965L
aL479607454L
aL177954918L
aL78551770L
aL195976624L
aL453094475L
aL132565134L
aL250145762L
aL52703133L
aL337428868L
aL716465178L
aL2252284013L
aL442308345L
aL190963922L
aL14206001L
aL17647752L
aL1385553505L
aL374119325L
aL2258533078L
aL490220421L
aL1934615324L
aL1183907076L
aL204257499L
aL365632337L
aL233219660L
aL2322242949L
aL240354094L
aL2177197611L
aL2367756536L
aL376672513L
aL1894270790L
aL1558155764L
aL293043500L
aL1482308450L
aL445088341L
aL840354253L
aL419473620L
aL40348476L
aL122116489L
aL37773663L
aL26259321L
aL83935578L
aL87708662L
aL1515849512L
aL26506201L
aL1086227094L
aL796025857L
aL2170740181L
aL38444157L
aL318415139L
aL318948450L
aL340998634L
aL1122033812L
aL233591999L
aL20222628L
aL296401520L
aL206194530L
aL1013587908L
aL957230899L
aL183293784L
aL34928099L
aL1387668470L
aL245360129L
aL488669596L
aL29874585L
aL251420712L
aL376923053L
aL303546357L
aL357512318L
aL353647203L
aL22991126L
aL234126518L
aL368719198L
aL2358677523L
aL328946138L
aL271542182L
aL1915083900L
aL1222198818L
aL812699358L
aL106161531L
aL303490626L
aL2251284782L
aL1184159234L
aL424267276L
aL557690694L
aL33856722L
aL2367973880L
aL368229909L
aL143808346L
aL196732230L
aL938800340L
aL174298166L
aL87191791L
aL470121830L
aL265715408L
aL964449866L
aL560665017L
aL1053651811L
aL465002369L
aL2301545950L
aL986470340L
aL389631400L
aL37036938L
aL185989107L
aL742561915L
aL56720436L
aL246940079L
aL261980536L
aL1657384148L
aL515992799L
aL91541686L
aL60761792L
aL426886525L
aL1252777597L
aL7542632L
aL54384389L
aL340418086L
aL182578010L
aL377546568L
aL555875373L
aL1387619214L
aL574342802L
aL37176174L
aL214257479L
aL280129550L
aL202832095L
aL8641682L
aL306285263L
aL2359045829L
aL235349173L
aL140345235L
aL126594359L
aL348014996L
aL447225088L
aL83334528L
aL1454971788L
aL271420791L
aL1046625674L
aL212958178L
aL2334358043L
aL477116917L
aL1109699844L
aL270040930L
aL805531412L
aL210301110L
aL328525135L
aL461165514L
aL151277150L
aL202758318L
aL455320730L
aL74715437L
aL21740258L
aL290193281L
aL322586119L
aL385272534L
aL1156939051L
aL741550026L
aL188287647L
aL261290781L
aL1886151931L
aL330928914L
aL457436110L
aL33738104L
aL408775203L
aL182325930L
aL250970108L
aL571102578L
aL367033888L
aL1202591556L
aL320343158L
aL504130554L
aL280072324L
aL400641715L
aL286821862L
aL343628092L
aL2346864423L
aL215376712L
aL507679060L
aL192878483L
aL13796412L
aL553663595L
aL220810359L
aL612603L
aL788994L
aL116518666L
aL96670448L
aL599184553L
aL252647663L
aL466807418L
aL291766700L
aL15352134L
aL38844190L
aL1248538807L
aL14224672L
aL378601046L
aL1324700611L
aL144471691L
aL435196459L
aL368408688L
aL378794896L
aL1196295919L
aL121874204L
aL2149334156L
aL97937374L
aL1376591036L
aL378800546L
aL379985658L
aL15847454L
aL127500560L
aL323229051L
aL2373409283L
aL418017826L
aL2259529460L
aL395933338L
aL3610511L
aL256569418L
aL1008666426L
aL883034334L
aL428126387L
aL792536682L
aL635646306L
aL218871179L
aL317071888L
aL124120727L
aL217716278L
aL339112107L
aL5789912L
aL454045010L
aL884824484L
aL68684550L
aL1114597147L
aL978927534L
aL2243860828L
aL257136759L
aL419737442L
aL2332485192L
aL368487065L
aL23233245L
aL1114699832L
aL552100592L
aL561060330L
aL104898749L
aL84575540L
aL2302720062L
aL104548312L
aL1966352959L
aL548641254L
aL392619244L
aL414288016L
aL90561456L
aL1364207886L
aL499116770L
aL1585862624L
aL1565739900L
aL2300253847L
aL1123153417L
aL13360552L
aL100735712L
aL2330517745L
aL2320528083L
aL462925222L
aL411327059L
aL1422655016L
aL260428644L
aL306750810L
aL41914935L
aL575204117L
aL23054148L
aL220402662L
aL77305935L
aL430493555L
aL773722153L
aL856861862L
aL156985920L
aL131183483L
aL1059894067L
aL522892690L
aL344164161L
aL395773454L
aL2292488066L
aL421973148L
aL897471678L
aL13581042L
aL359382281L
aL2320613362L
aL156075191L
aL245926739L
aL2362670216L
aL21144170L
aL472888940L
aL722658608L
aL25707890L
aL375842062L
aL22127871L
aL449619945L
aL1066378874L
aL39078652L
aL387072644L
aL1385372534L
aL996778393L
aL192070293L
aL222294014L
aL146207024L
aL373842326L
aL392309888L
aL55881684L
aL140182966L
aL291614323L
aL717265017L
aL390697552L
aL151830278L
aL1441587607L
aL2257748025L
aL2369528357L
aL189189507L
aL728175072L
aL28651900L
aL1971606968L
aL2203366243L
aL1276925323L
aL2362998580L
aL1104245508L
aL927263233L
aL2359191675L
aL1158295400L
aL1671357254L
aL2355020128L
aL402269187L
aL78847630L
aL811810L
aL84648510L
aL1046105574L
aL93027598L
aL36987677L
aL455631566L
aL471286017L
aL860205096L
aL24487865L
aL425081887L
aL1033743888L
aL101269025L
aL2288284342L
aL491478261L
aL104487901L
aL528324415L
aL2285007224L
aL262666342L
aL411527385L
aL104145214L
aL47567741L
aL489698872L
aL156367373L
aL504614866L
aL396883180L
aL306731910L
aL461179675L
aL306993143L
aL1586896566L
aL285172070L
aL100951558L
aL235579945L
aL429322999L
aL422412791L
aL408562523L
aL389908436L
aL14390640L
aL1335002731L
aL164850174L
aL522550411L
aL468777277L
aL19666962L
aL503084766L
aL278180731L
aL370838622L
aL299310921L
aL145087686L
aL75595158L
aL150513137L
aL1070166612L
aL401323315L
aL25661512L
aL292470105L
aL2246611443L
aL1404528326L
aL23183007L
aL1539201439L
aL1632800293L
aL555469749L
aL1905432865L
aL470537213L
aL459305026L
aL1336737180L
aL294072590L
aL303739576L
aL2361766409L
aL417253229L
aL50561362L
aL1122773328L
aL82642354L
aL992803188L
aL276220185L
aL266120929L
aL382338250L
aL400131458L
aL426932654L
aL241913355L
aL804598074L
aL1092116880L
aL157046212L
aL79518959L
aL172105123L
aL2209248007L
aL1415193865L
aL54549428L
aL2258545649L
aL305236970L
aL14170643L
aL1895237269L
aL350207235L
aL408546766L
aL1190704482L
aL1406324053L
aL414972626L
aL2351334776L
aL397566709L
aL2232097135L
aL1897674846L
aL182351786L
aL2207949434L
aL1313992285L
aL449075655L
aL557897089L
aL426195122L
aL491296530L
aL1066071158L
aL1884560101L
aL2305759359L
aL156588452L
aL1440517507L
aL371792951L
aL111923548L
aL589959672L
aL984531618L
aL130430040L
aL55204495L
aL157305087L
aL565331635L
aL44321197L
aL222039386L
aL596589059L
aL1295101627L
aL1926453132L
aL1144927560L
aL401303461L
aL2320701764L
aL862986014L
aL95210434L
aL407000871L
aL547517425L
aL385069705L
aL1106042779L
aL582217070L
aL257164238L
aL2184208893L
aL310453037L
aL2288087095L
aL397073816L
aL632692988L
aL632704239L
aL74851303L
aL946721966L
aL297972742L
aL910765130L
aL578451110L
aL2386514938L
aL433906732L
aL302042616L
aL191905236L
aL1155536090L
aL288228264L
aL402692584L
aL636846480L
aL1307121314L
aL190714014L
aL508977205L
aL35237503L
aL70405199L
aL223841737L
aL128648069L
aL213278353L
aL391496349L
aL1083273792L
aL1855347758L
aL1131602814L
aL162888979L
aL101251981L
aL1275706506L
aL348776365L
aL14814589L
aL2260162093L
aL2266116840L
aL8561232L
aL2358660442L
aL434892071L
aL17872876L
aL29953660L
aL84883140L
aL321386630L
aL984810222L
aL108076220L
aL2203274571L
aL465797535L
aL32866009L
aL409186343L
aL378791539L
aL1018355874L
aL259825759L
aL23806811L
aL418253045L
aL281566559L
aL295232530L
aL300771566L
aL2216034601L
aL1439236321L
aL82851434L
aL2282464469L
aL415349028L
aL1657095134L
aL519026215L
aL180771639L
aL2168642775L
aL819224161L
aL430640786L
aL121086102L
aL1411400424L
aL1678796628L
aL177199927L
aL521432439L
aL770076841L
aL19177959L
aL458780112L
aL1116401280L
aL2349926718L
aL1315008840L
aL35742353L
aL951236598L
aL2303387560L
aL14375547L
aL384234670L
aL137097570L
aL45413675L
aL309636678L
aL402558602L
aL85089429L
aL287892689L
aL2375542239L
aL421706444L
aL1961276468L
aL228731555L
aL47994222L
aL35763927L
aL394555876L
aL2336501776L
aL1284149910L
aL2279939375L
aL276829963L
aL422699418L
aL20224538L
aL2157439057L
aL293053884L
aL250704641L
aL474435008L
aL516567759L
aL902768790L
aL925885472L
aL2260786277L
aL432007109L
aL482506076L
aL118505324L
aL111588304L
aL1307515224L
aL2368648522L
aL2210293794L
aL853613850L
aL93080859L
aL1032360475L
aL2390854893L
aL1533277291L
aL1730188904L
aL1485464078L
aL400844052L
aL382947931L
aL541170716L
aL88299532L
aL410307649L
aL235250490L
aL393391856L
aL1723496576L
aL9993822L
aL621042199L
aL39709923L
aL328447246L
aL2148622875L
aL2341649206L
aL240323827L
aL574551474L
aL2161995638L
aL152714277L
aL415094401L
aL318948018L
aL523714630L
aL432544662L
aL283131799L
aL116521716L
aL497995599L
aL2337665482L
aL90708591L
aL1066130568L
aL207788287L
aL50265191L
aL1159607089L
aL256897312L
aL225947542L
aL143575632L
aL40875922L
aL157357753L
aL539203466L
aL350471713L
aL183714265L
aL981429824L
aL962425620L
aL537214809L
aL385028903L
aL379368785L
aL988588922L
aL19450940L
aL987295771L
aL2288388462L
aL1011271544L
aL20300000L
aL16281617L
aL17258749L
aL632360360L
aL18021560L
aL269906232L
aL46055703L
aL992719686L
aL1364214068L
aL55205859L
aL603116534L
aL16217035L
aL371908441L
aL1086229238L
aL2290372391L
aL580220141L
aL2398897713L
aL1866534218L
aL405677169L
aL148994284L
aL271384989L
aL285549215L
aL841888069L
aL1103332160L
aL389438902L
aL422581944L
aL2208543519L
aL2397185393L
aL495562453L
aL85060556L
aL851841601L
aL48941982L
aL389438644L
aL1473985014L
aL580163163L
aL15789409L
aL719436149L
aL1288386102L
aL488695183L
aL256880349L
aL584231479L
aL62489973L
aL96515075L
aL2312408062L
aL418770462L
aL287593649L
aL66946638L
aL102781487L
aL2248840441L
aL1833960078L
aL160461310L
aL25266782L
aL201902050L
aL2304173279L
aL365421346L
aL38264023L
aL1661884892L
aL2384915026L
aL2196919907L
aL1116673892L
aL216587262L
aL252354614L
aL292364008L
aL396628299L
aL1385079643L
aL369821674L
aL1357970305L
aL2291428594L
aL374170720L
aL379865572L
aL501880454L
aL431088312L
aL2360533937L
aL1872226640L
aL52799027L
aL2195098846L
aL543205232L
aL584790826L
aL1019776338L
aL1214337709L
aL2162679080L
aL391369373L
aL359177228L
aL1016211103L
aL477622827L
aL387703819L
aL254435210L
aL1220209706L
aL278036534L
aL605747370L
aL88955952L
aL1364018060L
aL383327008L
aL462987364L
aL1229333918L
aL130872778L
aL805693188L
aL493507622L
aL386447118L
aL1930799149L
aL1165475204L
aL433739640L
aL344443919L
aL381023029L
aL193827218L
aL106612226L
aL317198712L
aL255651177L
aL423290810L
aL428510750L
aL275100481L
aL131946542L
aL194619345L
aL304314748L
aL2296333788L
aL397529990L
aL462900995L
aL775558465L
aL942547687L
aL1371016687L
aL844153212L
aL1569167113L
aL967100371L
aL332443907L
aL97027548L
aL99120417L
aL24759060L
aL435736641L
aL300888596L
aL391274429L
aL459569129L
aL80400714L
aL961803686L
aL106826550L
aL172938199L
aL1947710642L
aL389097048L
aL30645588L
aL392597617L
aL347396859L
aL154200497L
aL430811981L
aL2349950424L
aL2244892443L
aL374421663L
aL187790862L
aL2164882541L
aL1551787045L
aL316645911L
aL426703602L
aL1855189470L
aL794116897L
aL326656740L
aL158768612L
aL587511484L
aL771147342L
aL17362148L
aL1593087229L
aL2293832740L
aL101780165L
aL12778082L
aL1100869914L
aL855252390L
aL19630325L
aL189834991L
aL1348753537L
aL1463146034L
aL1464813414L
aL2243718604L
aL2348890166L
aL624948167L
aL1687162093L
aL2333780064L
aL335860896L
aL1851542226L
aL15942990L
aL2346372184L
aL23933363L
aL169147743L
aL844091142L
aL128437358L
aL412215126L
aL287580813L
aL377234734L
aL174972216L
aL383460425L
aL559733533L
aL519713483L
aL2199219449L
aL19772429L
aL507384298L
aL504887192L
aL1536822373L
aL522054647L
aL2382097454L
aL370801101L
aL970101882L
aL129492505L
aL493211378L
aL375310259L
aL1706380130L
aL1570281842L
aL140434325L
aL146948072L
aL391255703L
aL65615870L
aL912226376L
aL1071904838L
aL519869932L
aL1644954793L
aL338203257L
aL376656016L
aL1031047332L
aL469490434L
aL315237234L
aL385067575L
aL268324726L
aL1181653537L
aL418173314L
aL2271899669L
aL178424663L
aL161162564L
aL134844104L
aL1024333278L
aL604599355L
aL849967843L
aL361157689L
aL1697145356L
aL593092433L
aL478629238L
aL1192442587L
aL1004675690L
aL392952150L
aL29537673L
aL9733432L
aL117260712L
aL1513522081L
aL63826660L
aL65769982L
aL121032557L
aL176444044L
aL169818796L
aL50290046L
aL937098618L
aL387761675L
aL1142535025L
aL428136056L
aL546512644L
aL400611136L
aL477649987L
aL636558420L
aL1036788019L
aL453976239L
aL1616838481L
aL592084569L
aL625053L
aL1316125141L
aL108713515L
aL1719586003L
aL192491326L
aL1256602561L
aL872242238L
aL1162603992L
aL555382390L
aL204898980L
aL1475914608L
aL150277773L
aL35827489L
aL284956938L
aL406351498L
aL1367980350L
aL324272804L
aL264671639L
aL201122984L
aL293432721L
aL243093977L
aL560539517L
aL159506999L
aL1504815912L
aL312790500L
aL111871014L
aL1145648916L
aL974616896L
aL369919068L
aL771611016L
aL1164385098L
aL2373146669L
aL92940073L
aL1647476666L
aL809310690L
aL312204696L
aL1168463130L
aL339331022L
aL1026363757L
aL407048032L
aL965628668L
aL223495740L
aL1555482066L
aL2247717963L
aL143070406L
aL1533399284L
aL499843565L
aL714709564L
aL532246675L
aL866576618L
aL513180657L
aL483131669L
aL28959436L
aL778728420L
aL2203162629L
aL1650931L
aL1042991749L
aL397325930L
aL166143295L
aL969897733L
aL1678510832L
aL51445804L
aL7268002L
aL904438754L
aL37512469L
aL365064931L
aL62271074L
aL585046232L
aL2207274519L
aL531122547L
aL618497571L
aL485765444L
aL2342939008L
aL1357779775L
aL484654228L
aL1715749542L
aL773490846L
aL48762113L
aL496757946L
aL858795870L
aL353572231L
aL997697503L
aL1213826318L
aL52716159L
aL408704922L
aL1296814482L
aL943014890L
aL1263019249L
aL1346916990L
aL1552935984L
aL984580657L
aL1066095740L
aL2367409114L
aL594596424L
aL14884289L
aL327304882L
aL9222512L
aL1052865210L
aL158123081L
aL851304342L
aL415343735L
aL38175462L
aL1034817134L
aL522689468L
aL340293590L
aL351565611L
aL382135231L
aL378277265L
aL1511183203L
aL1415005111L
aL2301944279L
aL1686005552L
aL131473753L
aL2375628155L
aL1103293754L
aL321371314L
aL989627965L
aL2358395751L
aL319151585L
aL317001862L
aL1726959378L
aL312703659L
aL1034828870L
aL120457027L
aL1591250816L
aL1231694341L
aL93858015L
aL112039103L
aL986754787L
aL28499980L
aL1643015492L
aL909005814L
aL2350818707L
aL1495103094L
aL2332935988L
aL1048013010L
aL288764769L
aL63256574L
aL50960856L
aL983480552L
aL541923875L
aL2167142596L
aL579850651L
aL329124449L
aL8678132L
aL457886450L
aL137650654L
aL1917895213L
aL1462973472L
aL970352856L
aL1557836522L
aL983249606L
aL97136467L
aL273590378L
aL404868726L
aL949652000L
aL13408952L
aL1721835618L
aL1521862452L
aL531177613L
aL128008800L
aL104048877L
aL384954683L
aL321315283L
aL537133786L
a.